
Mini_SDR.elf:     file format elf32-avr

Sections:
Idx Name          Size      VMA       LMA       File off  Algn
  0 .data         00000000  00800100  00800100  00001a90  2**0
                  ALLOC, LOAD, DATA
  1 .text         0000012a  00000000  00000000  00000194  2**1
                  CONTENTS, ALLOC, LOAD, READONLY, CODE
  2 .comment      0000002f  00000000  00000000  00001a90  2**0
                  CONTENTS, READONLY
  3 .debug_aranges 000000c8  00000000  00000000  00001abf  2**0
                  CONTENTS, READONLY, DEBUGGING
  4 .debug_info   00002755  00000000  00000000  00001b87  2**0
                  CONTENTS, READONLY, DEBUGGING
  5 .debug_abbrev 00000780  00000000  00000000  000042dc  2**0
                  CONTENTS, READONLY, DEBUGGING
  6 .debug_line   00000f27  00000000  00000000  00004a5c  2**0
                  CONTENTS, READONLY, DEBUGGING
  7 .debug_frame  00000208  00000000  00000000  00005984  2**2
                  CONTENTS, READONLY, DEBUGGING
  8 .debug_str    00000212  00000000  00000000  00005b8c  2**0
                  CONTENTS, READONLY, DEBUGGING
  9 .debug_loc    0000065a  00000000  00000000  00005d9e  2**0
                  CONTENTS, READONLY, DEBUGGING
 10 .debug_ranges 000000b8  00000000  00000000  000063f8  2**0
                  CONTENTS, READONLY, DEBUGGING
 11 .text         00000004  000018e0  000018e0  00001a74  2**1
                  CONTENTS, ALLOC, LOAD, READONLY, CODE
 12 .note.gnu.avr.deviceinfo 00000040  00000000  00000000  000064b0  2**2
                  CONTENTS, READONLY, DEBUGGING
 13 .text.__vector_21 0000022c  00000aa6  00000aa6  00000c3a  2**1
                  CONTENTS, ALLOC, LOAD, READONLY, CODE
 14 .text.adc_initiate 00000012  00001820  00001820  000019b4  2**1
                  CONTENTS, ALLOC, LOAD, READONLY, CODE
 15 .text.freq_limit 0000001a  000017d8  000017d8  0000196c  2**1
                  CONTENTS, ALLOC, LOAD, READONLY, CODE
 16 .text.lcd_cmd 00000022  00001778  00001778  0000190c  2**1
                  CONTENTS, ALLOC, LOAD, READONLY, CODE
 17 .text.lcd_data 0000005e  00001436  00001436  000015ca  2**1
                  CONTENTS, ALLOC, LOAD, READONLY, CODE
 18 .text.lcd_adress 0000005e  00001494  00001494  00001628  2**1
                  CONTENTS, ALLOC, LOAD, READONLY, CODE
 19 .text.lcd_init 00000014  0000180c  0000180c  000019a0  2**1
                  CONTENTS, ALLOC, LOAD, READONLY, CODE
 20 .text.lcd_off_cursor 0000000e  00001832  00001832  000019c6  2**1
                  CONTENTS, ALLOC, LOAD, READONLY, CODE
 21 .text.lcd_default 00000062  00001374  00001374  00001508  2**1
                  CONTENTS, ALLOC, LOAD, READONLY, CODE
 22 .text.lcd_mod 0000041e  00000688  00000688  0000081c  2**1
                  CONTENTS, ALLOC, LOAD, READONLY, CODE
 23 .text.mod_select 00000070  00001298  00001298  0000142c  2**1
                  CONTENTS, ALLOC, LOAD, READONLY, CODE
 24 .text.modulacao 0000000e  00001840  00001840  000019d4  2**1
                  CONTENTS, ALLOC, LOAD, READONLY, CODE
 25 .text.lcd_number 00000060  000013d6  000013d6  0000156a  2**1
                  CONTENTS, ALLOC, LOAD, READONLY, CODE
 26 .text.separate_digit 00000058  00001550  00001550  000016e4  2**1
                  CONTENTS, ALLOC, LOAD, READONLY, CODE
 27 .text.lcd_port 0000006c  00001308  00001308  0000149c  2**1
                  CONTENTS, ALLOC, LOAD, READONLY, CODE
 28 .text.portadora 0000001a  000017f2  000017f2  00001986  2**1
                  CONTENTS, ALLOC, LOAD, READONLY, CODE
 29 .text.lcd_calc 000000cc  00001152  00001152  000012e6  2**1
                  CONTENTS, ALLOC, LOAD, READONLY, CODE
 30 .text.lcd_R_analog 0000011c  00000cd2  00000cd2  00000e66  2**1
                  CONTENTS, ALLOC, LOAD, READONLY, CODE
 31 .text.lcd_R_digit 000000e4  00000dee  00000dee  00000f82  2**1
                  CONTENTS, ALLOC, LOAD, READONLY, CODE
 32 .text.main    0000055e  0000012a  0000012a  000002be  2**1
                  CONTENTS, ALLOC, LOAD, READONLY, CODE
 33 .bss.verifica_freq 00000002  0080011c  0080011c  00001a90  2**0
                  ALLOC
 34 .bss.Fin      00000002  0080011e  0080011e  00001a90  2**0
                  ALLOC
 35 .bss.Tin      00000004  00800108  00800108  00001a90  2**0
                  ALLOC
 36 .bss.contou   00000002  00800120  00800120  00001a90  2**0
                  ALLOC
 37 .bss.cont_bit 00000002  00800122  00800122  00001a90  2**0
                  ALLOC
 38 .data.VH      00000001  00800130  000018f8  00001a8c  2**0
                  CONTENTS, ALLOC, LOAD, DATA
 39 .data.VL      00000001  00800131  000018f9  00001a8d  2**0
                  CONTENTS, ALLOC, LOAD, DATA
 40 .bss.ce       00000002  00800124  00800124  00001a90  2**0
                  ALLOC
 41 .bss.de       00000002  00800126  00800126  00001a90  2**0
                  ALLOC
 42 .bss.un       00000002  00800128  00800128  00001a90  2**0
                  ALLOC
 43 .data.mod     00000002  0080012a  000018f4  00001a88  2**0
                  CONTENTS, ALLOC, LOAD, DATA
 44 .bss.adc_value 00000002  0080012c  0080012c  00001a90  2**0
                  ALLOC
 45 .data.msg_bin 00000008  00800100  000018e4  00001a78  2**0
                  CONTENTS, ALLOC, LOAD, DATA
 46 .data.Ap      00000001  00800132  000018fa  00001a8e  2**0
                  CONTENTS, ALLOC, LOAD, DATA
 47 .data.offset  00000001  00800133  000018fb  00001a8f  2**0
                  CONTENTS, ALLOC, LOAD, DATA
 48 .bss.output   00000001  00800134  00800134  00001a90  2**0
                  ALLOC
 49 .bss.input    00000001  00800135  00800135  00001a90  2**0
                  ALLOC
 50 .bss.c        00000004  0080010c  0080010c  00001a90  2**0
                  ALLOC
 51 .data.pi      00000004  00800110  000018ec  00001a80  2**0
                  CONTENTS, ALLOC, LOAD, DATA
 52 .data.fp      00000002  0080012e  000018f6  00001a8a  2**0
                  CONTENTS, ALLOC, LOAD, DATA
 53 .bss.t        00000004  00800114  00800114  00001a90  2**0
                  ALLOC
 54 .data.Ts      00000004  00800118  000018f0  00001a84  2**0
                  CONTENTS, ALLOC, LOAD, DATA
 55 .text.avrlibc.fplib 0000000e  0000184e  0000184e  000019e2  2**1
                  CONTENTS, ALLOC, LOAD, READONLY, CODE
 56 .text.avrlibc.fplib 000000ce  00001084  00001084  00001218  2**1
                  CONTENTS, ALLOC, LOAD, READONLY, CODE
 57 .text.avrlibc.fplib 0000000a  000018ac  000018ac  00001a40  2**1
                  CONTENTS, ALLOC, LOAD, READONLY, CODE
 58 .text.avrlibc.fplib 0000000a  000018b6  000018b6  00001a4a  2**1
                  CONTENTS, ALLOC, LOAD, READONLY, CODE
 59 .text.avrlibc.fplib 00000008  000018ca  000018ca  00001a5e  2**1
                  CONTENTS, ALLOC, LOAD, READONLY, CODE
 60 .text.avrlibc.fplib 000000de  00000ed2  00000ed2  00001066  2**1
                  CONTENTS, ALLOC, LOAD, READONLY, CODE
 61 .text.avrlibc.fplib 0000000e  0000185c  0000185c  000019f0  2**1
                  CONTENTS, ALLOC, LOAD, READONLY, CODE
 62 .text.avrlibc.fplib 0000005e  000014f2  000014f2  00001686  2**1
                  CONTENTS, ALLOC, LOAD, READONLY, CODE
 63 .text.avrlibc.fplib 0000007a  0000121e  0000121e  000013b2  2**1
                  CONTENTS, ALLOC, LOAD, READONLY, CODE
 64 .text.avrlibc.fplib 00000048  0000164c  0000164c  000017e0  2**1
                  CONTENTS, ALLOC, LOAD, READONLY, CODE
 65 .text.avrlibc.fplib 0000000c  00001894  00001894  00001a28  2**1
                  CONTENTS, ALLOC, LOAD, READONLY, CODE
 66 .text.avrlibc.fplib 00000006  000018da  000018da  00001a6e  2**1
                  CONTENTS, ALLOC, LOAD, READONLY, CODE
 67 .text.avrlibc.fplib 0000000e  0000186a  0000186a  000019fe  2**1
                  CONTENTS, ALLOC, LOAD, READONLY, CODE
 68 .text.avrlibc.fplib 0000000e  00001878  00001878  00001a0c  2**1
                  CONTENTS, ALLOC, LOAD, READONLY, CODE
 69 .text.avrlibc.fplib 00000056  000015a8  000015a8  0000173c  2**1
                  CONTENTS, ALLOC, LOAD, READONLY, CODE
 70 .text.avrlibc.fplib 00000022  0000179a  0000179a  0000192e  2**1
                  CONTENTS, ALLOC, LOAD, READONLY, CODE
 71 .text.avrlibc.fplib 00000028  000016d8  000016d8  0000186c  2**1
                  CONTENTS, ALLOC, LOAD, READONLY, CODE
 72 .text.avrlibc.fplib 00000044  00001694  00001694  00001828  2**1
                  CONTENTS, ALLOC, LOAD, READONLY, CODE
 73 .text.avrlibc.fplib 0000000e  00001886  00001886  00001a1a  2**1
                  CONTENTS, ALLOC, LOAD, READONLY, CODE
 74 .text.avrlibc.fplib 0000000a  000018c0  000018c0  00001a54  2**1
                  CONTENTS, ALLOC, LOAD, READONLY, CODE
 75 .text.avrlibc.fplib 00000008  000018d2  000018d2  00001a66  2**1
                  CONTENTS, ALLOC, LOAD, READONLY, CODE
 76 .text.avrlibc.fplib 000000d4  00000fb0  00000fb0  00001144  2**1
                  CONTENTS, ALLOC, LOAD, READONLY, CODE
 77 .text.avrlibc.fplib 0000001c  000017bc  000017bc  00001950  2**1
                  CONTENTS, ALLOC, LOAD, READONLY, CODE
 78 .text.avrlibc.fplib 00000028  00001700  00001700  00001894  2**1
                  CONTENTS, ALLOC, LOAD, READONLY, CODE
 79 .text.avrlibc.fplib 0000004e  000015fe  000015fe  00001792  2**1
                  CONTENTS, ALLOC, LOAD, READONLY, CODE
 80 .text.libgcc.div 00000028  00001728  00001728  000018bc  2**1
                  CONTENTS, ALLOC, LOAD, READONLY, CODE
 81 .text.libgcc  0000000c  000018a0  000018a0  00001a34  2**1
                  CONTENTS, ALLOC, LOAD, READONLY, CODE
 82 .text.libgcc.div 00000028  00001750  00001750  000018e4  2**1
                  CONTENTS, ALLOC, LOAD, READONLY, CODE

Disassembly of section .text:

00000000 <__vectors>:
   0:	0c 94 6b 00 	jmp	0xd6	; 0xd6 <__ctors_end>
   4:	0c 94 70 0c 	jmp	0x18e0	; 0x18e0 <__bad_interrupt>
   8:	0c 94 70 0c 	jmp	0x18e0	; 0x18e0 <__bad_interrupt>
   c:	0c 94 70 0c 	jmp	0x18e0	; 0x18e0 <__bad_interrupt>
  10:	0c 94 70 0c 	jmp	0x18e0	; 0x18e0 <__bad_interrupt>
  14:	0c 94 70 0c 	jmp	0x18e0	; 0x18e0 <__bad_interrupt>
  18:	0c 94 70 0c 	jmp	0x18e0	; 0x18e0 <__bad_interrupt>
  1c:	0c 94 70 0c 	jmp	0x18e0	; 0x18e0 <__bad_interrupt>
  20:	0c 94 70 0c 	jmp	0x18e0	; 0x18e0 <__bad_interrupt>
  24:	0c 94 70 0c 	jmp	0x18e0	; 0x18e0 <__bad_interrupt>
  28:	0c 94 70 0c 	jmp	0x18e0	; 0x18e0 <__bad_interrupt>
  2c:	0c 94 70 0c 	jmp	0x18e0	; 0x18e0 <__bad_interrupt>
  30:	0c 94 70 0c 	jmp	0x18e0	; 0x18e0 <__bad_interrupt>
  34:	0c 94 70 0c 	jmp	0x18e0	; 0x18e0 <__bad_interrupt>
  38:	0c 94 70 0c 	jmp	0x18e0	; 0x18e0 <__bad_interrupt>
  3c:	0c 94 70 0c 	jmp	0x18e0	; 0x18e0 <__bad_interrupt>
  40:	0c 94 70 0c 	jmp	0x18e0	; 0x18e0 <__bad_interrupt>
  44:	0c 94 70 0c 	jmp	0x18e0	; 0x18e0 <__bad_interrupt>
  48:	0c 94 70 0c 	jmp	0x18e0	; 0x18e0 <__bad_interrupt>
  4c:	0c 94 70 0c 	jmp	0x18e0	; 0x18e0 <__bad_interrupt>
  50:	0c 94 70 0c 	jmp	0x18e0	; 0x18e0 <__bad_interrupt>
  54:	0c 94 53 05 	jmp	0xaa6	; 0xaa6 <__vector_21>
  58:	0c 94 70 0c 	jmp	0x18e0	; 0x18e0 <__bad_interrupt>
  5c:	0c 94 70 0c 	jmp	0x18e0	; 0x18e0 <__bad_interrupt>
  60:	0c 94 70 0c 	jmp	0x18e0	; 0x18e0 <__bad_interrupt>
  64:	0c 94 70 0c 	jmp	0x18e0	; 0x18e0 <__bad_interrupt>
  68:	f3 09       	sbc	r31, r3
  6a:	f7 09       	sbc	r31, r7
  6c:	fb 09       	sbc	r31, r11
  6e:	ff 09       	sbc	r31, r15
  70:	03 0a       	sbc	r0, r19
  72:	07 0a       	sbc	r0, r23
  74:	0b 0a       	sbc	r0, r27
  76:	0f 0a       	sbc	r0, r31
  78:	13 0a       	sbc	r1, r19
  7a:	17 0a       	sbc	r1, r23
  7c:	05 a8       	ldd	r0, Z+53	; 0x35
  7e:	4c cd       	rjmp	.-1384   	; 0xfffffb18 <__eeprom_end+0xff7efb18>
  80:	b2 d4       	rcall	.+2404   	; 0x9e6 <__stack+0xe7>
  82:	4e b9       	out	0x0e, r20	; 14
  84:	38 36       	cpi	r19, 0x68	; 104
  86:	a9 02       	muls	r26, r25
  88:	0c 50       	subi	r16, 0x0C	; 12
  8a:	b9 91       	ld	r27, Y+
  8c:	86 88       	ldd	r8, Z+22	; 0x16
  8e:	08 3c       	cpi	r16, 0xC8	; 200
  90:	a6 aa       	std	Z+54, r10	; 0x36
  92:	aa 2a       	or	r10, r26
  94:	be 00       	.word	0x00be	; ????
  96:	00 00       	nop
  98:	80 3f       	cpi	r24, 0xF0	; 240

0000009a <.dinit>:
  9a:	01 00       	.word	0x0001	; ????
  9c:	01 08       	sbc	r0, r1
  9e:	00 18       	sub	r0, r0
  a0:	e4 01       	movw	r28, r8
  a2:	08 01       	movw	r0, r16
  a4:	10 80       	ld	r1, Z
  a6:	01 10       	cpse	r0, r1
  a8:	01 14       	cp	r0, r1
  aa:	00 18       	sub	r0, r0
  ac:	ec 01       	movw	r28, r24
  ae:	14 01       	movw	r2, r8
  b0:	18 80       	ld	r1, Y
  b2:	01 18       	sub	r0, r1
  b4:	01 1c       	adc	r0, r1
  b6:	00 18       	sub	r0, r0
  b8:	f0 01       	movw	r30, r0
  ba:	1c 01       	movw	r2, r24
  bc:	2a 80       	ldd	r2, Y+2	; 0x02
  be:	01 2a       	or	r0, r17
  c0:	01 2c       	mov	r0, r1
  c2:	00 18       	sub	r0, r0
  c4:	f4 01       	movw	r30, r8
  c6:	2c 01       	movw	r4, r24
  c8:	2e 80       	ldd	r2, Y+6	; 0x06
  ca:	01 2e       	mov	r0, r17
  cc:	01 34       	cpi	r16, 0x41	; 65
  ce:	00 18       	sub	r0, r0
  d0:	f6 01       	movw	r30, r12
  d2:	34 01       	movw	r6, r8
  d4:	36 80       	ldd	r3, Z+6	; 0x06

000000d6 <__ctors_end>:
  d6:	11 24       	eor	r1, r1
  d8:	1f be       	out	0x3f, r1	; 63
  da:	cf ef       	ldi	r28, 0xFF	; 255
  dc:	d8 e0       	ldi	r29, 0x08	; 8
  de:	de bf       	out	0x3e, r29	; 62
  e0:	cd bf       	out	0x3d, r28	; 61

000000e2 <__do_copy_data>:
  e2:	ea e9       	ldi	r30, 0x9A	; 154
  e4:	f0 e0       	ldi	r31, 0x00	; 0
  e6:	40 e0       	ldi	r20, 0x00	; 0
  e8:	17 c0       	rjmp	.+46     	; 0x118 <__do_clear_bss+0x8>
  ea:	b5 91       	lpm	r27, Z+
  ec:	a5 91       	lpm	r26, Z+
  ee:	35 91       	lpm	r19, Z+
  f0:	25 91       	lpm	r18, Z+
  f2:	05 91       	lpm	r16, Z+
  f4:	07 fd       	sbrc	r16, 7
  f6:	0c c0       	rjmp	.+24     	; 0x110 <__do_clear_bss>
  f8:	95 91       	lpm	r25, Z+
  fa:	85 91       	lpm	r24, Z+
  fc:	ef 01       	movw	r28, r30
  fe:	f9 2f       	mov	r31, r25
 100:	e8 2f       	mov	r30, r24
 102:	05 90       	lpm	r0, Z+
 104:	0d 92       	st	X+, r0
 106:	a2 17       	cp	r26, r18
 108:	b3 07       	cpc	r27, r19
 10a:	d9 f7       	brne	.-10     	; 0x102 <__do_copy_data+0x20>
 10c:	fe 01       	movw	r30, r28
 10e:	04 c0       	rjmp	.+8      	; 0x118 <__do_clear_bss+0x8>

00000110 <__do_clear_bss>:
 110:	1d 92       	st	X+, r1
 112:	a2 17       	cp	r26, r18
 114:	b3 07       	cpc	r27, r19
 116:	e1 f7       	brne	.-8      	; 0x110 <__do_clear_bss>
 118:	e6 3d       	cpi	r30, 0xD6	; 214
 11a:	f4 07       	cpc	r31, r20
 11c:	31 f7       	brne	.-52     	; 0xea <__do_copy_data+0x8>
 11e:	0e 94 95 00 	call	0x12a	; 0x12a <_etext>
 122:	0c 94 93 00 	jmp	0x126	; 0x126 <_exit>

00000126 <_exit>:
 126:	f8 94       	cli

00000128 <__stop_program>:
 128:	ff cf       	rjmp	.-2      	; 0x128 <__stop_program>

Disassembly of section .text:

000018e0 <__bad_interrupt>:
    18e0:	0c 94 00 00 	jmp	0	; 0x0 <__TEXT_REGION_ORIGIN__>

Disassembly of section .text.__vector_21:

00000aa6 <__vector_21>:
//						DISPLAY LCD
//----------------------------------------------------------

void delay_1(){
	for(int i = 0;i<200;i++){}
}
 aa6:	1f 92       	push	r1
 aa8:	0f 92       	push	r0
 aaa:	0f b6       	in	r0, 0x3f	; 63
 aac:	0f 92       	push	r0
 aae:	11 24       	eor	r1, r1
 ab0:	cf 92       	push	r12
 ab2:	df 92       	push	r13
 ab4:	ef 92       	push	r14
 ab6:	ff 92       	push	r15
 ab8:	0f 93       	push	r16
 aba:	1f 93       	push	r17
 abc:	2f 93       	push	r18
 abe:	3f 93       	push	r19
 ac0:	4f 93       	push	r20
 ac2:	5f 93       	push	r21
 ac4:	6f 93       	push	r22
 ac6:	7f 93       	push	r23
 ac8:	8f 93       	push	r24
 aca:	9f 93       	push	r25
 acc:	af 93       	push	r26
 ace:	bf 93       	push	r27
 ad0:	cf 93       	push	r28
 ad2:	df 93       	push	r29
 ad4:	ef 93       	push	r30
 ad6:	ff 93       	push	r31
 ad8:	00 91 78 00 	lds	r16, 0x0078	; 0x800078 <__TEXT_REGION_LENGTH__+0x7f8078>
 adc:	10 91 79 00 	lds	r17, 0x0079	; 0x800079 <__TEXT_REGION_LENGTH__+0x7f8079>
 ae0:	10 93 2d 01 	sts	0x012D, r17	; 0x80012d <adc_value+0x1>
 ae4:	00 93 2c 01 	sts	0x012C, r16	; 0x80012c <adc_value>
 ae8:	c0 91 2a 01 	lds	r28, 0x012A	; 0x80012a <mod>
 aec:	d0 91 2b 01 	lds	r29, 0x012B	; 0x80012b <mod+0x1>
 af0:	c3 30       	cpi	r28, 0x03	; 3
 af2:	d1 05       	cpc	r29, r1
 af4:	0c f0       	brlt	.+2      	; 0xaf8 <__vector_21+0x52>
 af6:	5b c0       	rjmp	.+182    	; 0xbae <__vector_21+0x108>
 af8:	01 15       	cp	r16, r1
 afa:	82 e0       	ldi	r24, 0x02	; 2
 afc:	18 07       	cpc	r17, r24
 afe:	08 f5       	brcc	.+66     	; 0xb42 <__vector_21+0x9c>
 b00:	20 91 18 01 	lds	r18, 0x0118	; 0x800118 <Ts>
 b04:	30 91 19 01 	lds	r19, 0x0119	; 0x800119 <Ts+0x1>
 b08:	40 91 1a 01 	lds	r20, 0x011A	; 0x80011a <Ts+0x2>
 b0c:	50 91 1b 01 	lds	r21, 0x011B	; 0x80011b <Ts+0x3>
 b10:	60 91 08 01 	lds	r22, 0x0108	; 0x800108 <Tin>
 b14:	70 91 09 01 	lds	r23, 0x0109	; 0x800109 <Tin+0x1>
 b18:	80 91 0a 01 	lds	r24, 0x010A	; 0x80010a <Tin+0x2>
 b1c:	90 91 0b 01 	lds	r25, 0x010B	; 0x80010b <Tin+0x3>
 b20:	0e 94 28 0c 	call	0x1850	; 0x1850 <__addsf3>
 b24:	60 93 08 01 	sts	0x0108, r22	; 0x800108 <Tin>
 b28:	70 93 09 01 	sts	0x0109, r23	; 0x800109 <Tin+0x1>
 b2c:	80 93 0a 01 	sts	0x010A, r24	; 0x80010a <Tin+0x2>
 b30:	90 93 0b 01 	sts	0x010B, r25	; 0x80010b <Tin+0x3>
 b34:	81 e0       	ldi	r24, 0x01	; 1
 b36:	90 e0       	ldi	r25, 0x00	; 0
 b38:	90 93 21 01 	sts	0x0121, r25	; 0x800121 <contou+0x1>
 b3c:	80 93 20 01 	sts	0x0120, r24	; 0x800120 <contou>
 b40:	36 c0       	rjmp	.+108    	; 0xbae <__vector_21+0x108>
 b42:	80 91 20 01 	lds	r24, 0x0120	; 0x800120 <contou>
 b46:	90 91 21 01 	lds	r25, 0x0121	; 0x800121 <contou+0x1>
 b4a:	01 97       	sbiw	r24, 0x01	; 1
 b4c:	81 f5       	brne	.+96     	; 0xbae <__vector_21+0x108>
 b4e:	c0 90 08 01 	lds	r12, 0x0108	; 0x800108 <Tin>
 b52:	d0 90 09 01 	lds	r13, 0x0109	; 0x800109 <Tin+0x1>
 b56:	e0 90 0a 01 	lds	r14, 0x010A	; 0x80010a <Tin+0x2>
 b5a:	f0 90 0b 01 	lds	r15, 0x010B	; 0x80010b <Tin+0x3>
 b5e:	20 e0       	ldi	r18, 0x00	; 0
 b60:	30 e0       	ldi	r19, 0x00	; 0
 b62:	a9 01       	movw	r20, r18
 b64:	c7 01       	movw	r24, r14
 b66:	b6 01       	movw	r22, r12
 b68:	0e 94 56 0c 	call	0x18ac	; 0x18ac <__cmpsf2>
 b6c:	88 23       	and	r24, r24
 b6e:	79 f0       	breq	.+30     	; 0xb8e <__vector_21+0xe8>
 b70:	a7 01       	movw	r20, r14
 b72:	96 01       	movw	r18, r12
 b74:	60 e0       	ldi	r22, 0x00	; 0
 b76:	70 e0       	ldi	r23, 0x00	; 0
 b78:	80 e0       	ldi	r24, 0x00	; 0
 b7a:	90 e4       	ldi	r25, 0x40	; 64
 b7c:	0e 94 65 0c 	call	0x18ca	; 0x18ca <__divsf3>
 b80:	0e 94 2e 0c 	call	0x185c	; 0x185c <__fixsfsi>
 b84:	70 93 1f 01 	sts	0x011F, r23	; 0x80011f <Fin+0x1>
 b88:	60 93 1e 01 	sts	0x011E, r22	; 0x80011e <Fin>
 b8c:	04 c0       	rjmp	.+8      	; 0xb96 <__vector_21+0xf0>
 b8e:	10 92 1f 01 	sts	0x011F, r1	; 0x80011f <Fin+0x1>
 b92:	10 92 1e 01 	sts	0x011E, r1	; 0x80011e <Fin>
 b96:	10 92 21 01 	sts	0x0121, r1	; 0x800121 <contou+0x1>
 b9a:	10 92 20 01 	sts	0x0120, r1	; 0x800120 <contou>
 b9e:	10 92 08 01 	sts	0x0108, r1	; 0x800108 <Tin>
 ba2:	10 92 09 01 	sts	0x0109, r1	; 0x800109 <Tin+0x1>
 ba6:	10 92 0a 01 	sts	0x010A, r1	; 0x80010a <Tin+0x2>
 baa:	10 92 0b 01 	sts	0x010B, r1	; 0x80010b <Tin+0x3>
 bae:	23 97       	sbiw	r28, 0x03	; 3
 bb0:	0c f4       	brge	.+2      	; 0xbb4 <__vector_21+0x10e>
 bb2:	76 c0       	rjmp	.+236    	; 0xca0 <__vector_21+0x1fa>
 bb4:	20 91 18 01 	lds	r18, 0x0118	; 0x800118 <Ts>
 bb8:	30 91 19 01 	lds	r19, 0x0119	; 0x800119 <Ts+0x1>
 bbc:	40 91 1a 01 	lds	r20, 0x011A	; 0x80011a <Ts+0x2>
 bc0:	50 91 1b 01 	lds	r21, 0x011B	; 0x80011b <Ts+0x3>
 bc4:	60 91 08 01 	lds	r22, 0x0108	; 0x800108 <Tin>
 bc8:	70 91 09 01 	lds	r23, 0x0109	; 0x800109 <Tin+0x1>
 bcc:	80 91 0a 01 	lds	r24, 0x010A	; 0x80010a <Tin+0x2>
 bd0:	90 91 0b 01 	lds	r25, 0x010B	; 0x80010b <Tin+0x3>
 bd4:	0e 94 28 0c 	call	0x1850	; 0x1850 <__addsf3>
 bd8:	6b 01       	movw	r12, r22
 bda:	7c 01       	movw	r14, r24
 bdc:	60 93 08 01 	sts	0x0108, r22	; 0x800108 <Tin>
 be0:	70 93 09 01 	sts	0x0109, r23	; 0x800109 <Tin+0x1>
 be4:	80 93 0a 01 	sts	0x010A, r24	; 0x80010a <Tin+0x2>
 be8:	90 93 0b 01 	sts	0x010B, r25	; 0x80010b <Tin+0x3>
 bec:	35 99       	sbic	0x06, 5	; 6
 bee:	11 c0       	rjmp	.+34     	; 0xc12 <__vector_21+0x16c>
 bf0:	0b 30       	cpi	r16, 0x0B	; 11
 bf2:	11 05       	cpc	r17, r1
 bf4:	20 f4       	brcc	.+8      	; 0xbfe <__vector_21+0x158>
 bf6:	80 e3       	ldi	r24, 0x30	; 48
 bf8:	80 93 31 01 	sts	0x0131, r24	; 0x800131 <VL>
 bfc:	03 c0       	rjmp	.+6      	; 0xc04 <__vector_21+0x15e>
 bfe:	81 e3       	ldi	r24, 0x31	; 49
 c00:	80 93 31 01 	sts	0x0131, r24	; 0x800131 <VL>
 c04:	81 e0       	ldi	r24, 0x01	; 1
 c06:	90 e0       	ldi	r25, 0x00	; 0
 c08:	90 93 21 01 	sts	0x0121, r25	; 0x800121 <contou+0x1>
 c0c:	80 93 20 01 	sts	0x0120, r24	; 0x800120 <contou>
 c10:	47 c0       	rjmp	.+142    	; 0xca0 <__vector_21+0x1fa>
 c12:	80 91 31 01 	lds	r24, 0x0131	; 0x800131 <VL>
 c16:	80 93 30 01 	sts	0x0130, r24	; 0x800130 <VH>
 c1a:	20 91 20 01 	lds	r18, 0x0120	; 0x800120 <contou>
 c1e:	30 91 21 01 	lds	r19, 0x0121	; 0x800121 <contou+0x1>
 c22:	21 30       	cpi	r18, 0x01	; 1
 c24:	31 05       	cpc	r19, r1
 c26:	e1 f5       	brne	.+120    	; 0xca0 <__vector_21+0x1fa>
 c28:	20 91 22 01 	lds	r18, 0x0122	; 0x800122 <cont_bit>
 c2c:	30 91 23 01 	lds	r19, 0x0123	; 0x800123 <cont_bit+0x1>
 c30:	f9 01       	movw	r30, r18
 c32:	e0 50       	subi	r30, 0x00	; 0
 c34:	ff 4f       	sbci	r31, 0xFF	; 255
 c36:	80 83       	st	Z, r24
 c38:	c9 01       	movw	r24, r18
 c3a:	01 96       	adiw	r24, 0x01	; 1
 c3c:	90 93 23 01 	sts	0x0123, r25	; 0x800123 <cont_bit+0x1>
 c40:	80 93 22 01 	sts	0x0122, r24	; 0x800122 <cont_bit>
 c44:	10 92 21 01 	sts	0x0121, r1	; 0x800121 <contou+0x1>
 c48:	10 92 20 01 	sts	0x0120, r1	; 0x800120 <contou>
 c4c:	08 97       	sbiw	r24, 0x08	; 8
 c4e:	21 f4       	brne	.+8      	; 0xc58 <__vector_21+0x1b2>
 c50:	10 92 23 01 	sts	0x0123, r1	; 0x800123 <cont_bit+0x1>
 c54:	10 92 22 01 	sts	0x0122, r1	; 0x800122 <cont_bit>
 c58:	20 e0       	ldi	r18, 0x00	; 0
 c5a:	30 e0       	ldi	r19, 0x00	; 0
 c5c:	a9 01       	movw	r20, r18
 c5e:	c7 01       	movw	r24, r14
 c60:	b6 01       	movw	r22, r12
 c62:	0e 94 56 0c 	call	0x18ac	; 0x18ac <__cmpsf2>
 c66:	88 23       	and	r24, r24
 c68:	79 f0       	breq	.+30     	; 0xc88 <__vector_21+0x1e2>
 c6a:	a7 01       	movw	r20, r14
 c6c:	96 01       	movw	r18, r12
 c6e:	60 e0       	ldi	r22, 0x00	; 0
 c70:	70 e0       	ldi	r23, 0x00	; 0
 c72:	80 e8       	ldi	r24, 0x80	; 128
 c74:	9f e3       	ldi	r25, 0x3F	; 63
 c76:	0e 94 65 0c 	call	0x18ca	; 0x18ca <__divsf3>
 c7a:	0e 94 2e 0c 	call	0x185c	; 0x185c <__fixsfsi>
 c7e:	70 93 1f 01 	sts	0x011F, r23	; 0x80011f <Fin+0x1>
 c82:	60 93 1e 01 	sts	0x011E, r22	; 0x80011e <Fin>
 c86:	04 c0       	rjmp	.+8      	; 0xc90 <__vector_21+0x1ea>
 c88:	10 92 1f 01 	sts	0x011F, r1	; 0x80011f <Fin+0x1>
 c8c:	10 92 1e 01 	sts	0x011E, r1	; 0x80011e <Fin>
 c90:	10 92 08 01 	sts	0x0108, r1	; 0x800108 <Tin>
 c94:	10 92 09 01 	sts	0x0109, r1	; 0x800109 <Tin+0x1>
 c98:	10 92 0a 01 	sts	0x010A, r1	; 0x80010a <Tin+0x2>
 c9c:	10 92 0b 01 	sts	0x010B, r1	; 0x80010b <Tin+0x3>
 ca0:	ff 91       	pop	r31
 ca2:	ef 91       	pop	r30
 ca4:	df 91       	pop	r29
 ca6:	cf 91       	pop	r28
 ca8:	bf 91       	pop	r27
 caa:	af 91       	pop	r26
 cac:	9f 91       	pop	r25
 cae:	8f 91       	pop	r24
 cb0:	7f 91       	pop	r23
 cb2:	6f 91       	pop	r22
 cb4:	5f 91       	pop	r21
 cb6:	4f 91       	pop	r20
 cb8:	3f 91       	pop	r19
 cba:	2f 91       	pop	r18
 cbc:	1f 91       	pop	r17
 cbe:	0f 91       	pop	r16
 cc0:	ff 90       	pop	r15
 cc2:	ef 90       	pop	r14
 cc4:	df 90       	pop	r13
 cc6:	cf 90       	pop	r12
 cc8:	0f 90       	pop	r0
 cca:	0f be       	out	0x3f, r0	; 63
 ccc:	0f 90       	pop	r0
 cce:	1f 90       	pop	r1
 cd0:	18 95       	reti

Disassembly of section .text.adc_initiate:

00001820 <adc_initiate>:
		ADATE=1	Auto trigger enable bit
		ADIF=0	Flag que sinaliza fim da conversão quando em 1
		ADIE=1	Habilita interrupções CORREÇÃO DE PROJETO
		ADPS[2:0]=1	Seta o prescale em 128
	*/
	ADCSRA = 0xEF;
    1820:	8f ee       	ldi	r24, 0xEF	; 239
    1822:	80 93 7a 00 	sts	0x007A, r24	; 0x80007a <__TEXT_REGION_LENGTH__+0x7f807a>
	ADCSRB = 0x00;		// Seleciona modo FREE RUNNING
    1826:	10 92 7b 00 	sts	0x007B, r1	; 0x80007b <__TEXT_REGION_LENGTH__+0x7f807b>
		
		REFS1=0	e REFS0=1		Seleciona o Vcc como Vref do conversor
		ADALAR=0			Seleciona ajuste à direita do resultado no reg de dados
		MUX[3:0]=0			Seleciona ADC0 como canal a ser lido pelo ADC
	*/	
	ADMUX = 0x40;
    182a:	80 e4       	ldi	r24, 0x40	; 64
    182c:	80 93 7c 00 	sts	0x007C, r24	; 0x80007c <__TEXT_REGION_LENGTH__+0x7f807c>
    1830:	08 95       	ret

Disassembly of section .text.freq_limit:

000017d8 <freq_limit>:
//Funcao que retorna o valor do potenciometro com as limitacoes [100 <= valor <= 999]
uint16_t freq_limit (uint16_t adc_value){
	uint16_t l_freq = 100;
	uint16_t h_freq = 999;
	
	if(adc_value <= l_freq) return l_freq;
    17d8:	85 36       	cpi	r24, 0x65	; 101
    17da:	91 05       	cpc	r25, r1
    17dc:	38 f0       	brcs	.+14     	; 0x17ec <freq_limit+0x14>
	else if (adc_value >= h_freq) return h_freq;
    17de:	87 3e       	cpi	r24, 0xE7	; 231
    17e0:	23 e0       	ldi	r18, 0x03	; 3
    17e2:	92 07       	cpc	r25, r18
    17e4:	28 f0       	brcs	.+10     	; 0x17f0 <freq_limit+0x18>
    17e6:	87 ee       	ldi	r24, 0xE7	; 231
    17e8:	93 e0       	ldi	r25, 0x03	; 3
    17ea:	08 95       	ret
//Funcao que retorna o valor do potenciometro com as limitacoes [100 <= valor <= 999]
uint16_t freq_limit (uint16_t adc_value){
	uint16_t l_freq = 100;
	uint16_t h_freq = 999;
	
	if(adc_value <= l_freq) return l_freq;
    17ec:	84 e6       	ldi	r24, 0x64	; 100
    17ee:	90 e0       	ldi	r25, 0x00	; 0
	else if (adc_value >= h_freq) return h_freq;
	else return adc_value;
}
    17f0:	08 95       	ret

Disassembly of section .text.lcd_cmd:

00001778 <lcd_cmd>:
	for(int i = 0;i<200;i++){}
}

void lcd_cmd(unsigned char cmd){
	
	PORTB &= 0xF0;								// Mask preservation 4 LSBs
    1778:	95 b1       	in	r25, 0x05	; 5
    177a:	90 7f       	andi	r25, 0xF0	; 240
    177c:	95 b9       	out	0x05, r25	; 5
	cmd &= 0x0F;
    177e:	8f 70       	andi	r24, 0x0F	; 15
	PORTB |= cmd;								// Add data command
    1780:	95 b1       	in	r25, 0x05	; 5
    1782:	89 2b       	or	r24, r25
    1784:	85 b9       	out	0x05, r24	; 5
	
	PORTB &= ~(1<<PORTB5);						// Set RS = 0
    1786:	85 b1       	in	r24, 0x05	; 5
    1788:	8f 7d       	andi	r24, 0xDF	; 223
    178a:	85 b9       	out	0x05, r24	; 5
	PORTB |= (1<<PORTB4);						// Set E = 1
    178c:	85 b1       	in	r24, 0x05	; 5
    178e:	80 61       	ori	r24, 0x10	; 16
    1790:	85 b9       	out	0x05, r24	; 5
	delay_1();
	PORTB &= ~(1<<PORTB4);						// Set E = 0
    1792:	85 b1       	in	r24, 0x05	; 5
    1794:	8f 7e       	andi	r24, 0xEF	; 239
    1796:	85 b9       	out	0x05, r24	; 5
    1798:	08 95       	ret

Disassembly of section .text.lcd_data:

00001436 <lcd_data>:
//						DISPLAY LCD
//----------------------------------------------------------

void delay_1(){
	for(int i = 0;i<200;i++){}
}
    1436:	95 b1       	in	r25, 0x05	; 5
    1438:	90 62       	ori	r25, 0x20	; 32
    143a:	95 b9       	out	0x05, r25	; 5
    143c:	20 e0       	ldi	r18, 0x00	; 0
    143e:	30 e0       	ldi	r19, 0x00	; 0
    1440:	22 c0       	rjmp	.+68     	; 0x1486 <lcd_data+0x50>
    1442:	21 15       	cp	r18, r1
    1444:	31 05       	cpc	r19, r1
    1446:	81 f4       	brne	.+32     	; 0x1468 <lcd_data+0x32>
    1448:	95 b1       	in	r25, 0x05	; 5
    144a:	90 7f       	andi	r25, 0xF0	; 240
    144c:	95 b9       	out	0x05, r25	; 5
    144e:	95 b1       	in	r25, 0x05	; 5
    1450:	48 2f       	mov	r20, r24
    1452:	42 95       	swap	r20
    1454:	4f 70       	andi	r20, 0x0F	; 15
    1456:	94 2b       	or	r25, r20
    1458:	95 b9       	out	0x05, r25	; 5
    145a:	95 b1       	in	r25, 0x05	; 5
    145c:	90 61       	ori	r25, 0x10	; 16
    145e:	95 b9       	out	0x05, r25	; 5
    1460:	95 b1       	in	r25, 0x05	; 5
    1462:	9f 7e       	andi	r25, 0xEF	; 239
    1464:	95 b9       	out	0x05, r25	; 5
    1466:	0d c0       	rjmp	.+26     	; 0x1482 <lcd_data+0x4c>
    1468:	95 b1       	in	r25, 0x05	; 5
    146a:	90 7f       	andi	r25, 0xF0	; 240
    146c:	95 b9       	out	0x05, r25	; 5
    146e:	8f 70       	andi	r24, 0x0F	; 15
    1470:	95 b1       	in	r25, 0x05	; 5
    1472:	98 2b       	or	r25, r24
    1474:	95 b9       	out	0x05, r25	; 5
    1476:	95 b1       	in	r25, 0x05	; 5
    1478:	90 61       	ori	r25, 0x10	; 16
    147a:	95 b9       	out	0x05, r25	; 5
    147c:	95 b1       	in	r25, 0x05	; 5
    147e:	9f 7e       	andi	r25, 0xEF	; 239
    1480:	95 b9       	out	0x05, r25	; 5
    1482:	2f 5f       	subi	r18, 0xFF	; 255
    1484:	3f 4f       	sbci	r19, 0xFF	; 255
    1486:	22 30       	cpi	r18, 0x02	; 2
    1488:	31 05       	cpc	r19, r1
    148a:	dc f2       	brlt	.-74     	; 0x1442 <lcd_data+0xc>
    148c:	85 b1       	in	r24, 0x05	; 5
    148e:	8f 7d       	andi	r24, 0xDF	; 223
    1490:	85 b9       	out	0x05, r24	; 5
    1492:	08 95       	ret

Disassembly of section .text.lcd_adress:

00001494 <lcd_adress>:
    1494:	95 b1       	in	r25, 0x05	; 5
    1496:	9f 7d       	andi	r25, 0xDF	; 223
    1498:	95 b9       	out	0x05, r25	; 5
    149a:	20 e0       	ldi	r18, 0x00	; 0
    149c:	30 e0       	ldi	r19, 0x00	; 0
    149e:	22 c0       	rjmp	.+68     	; 0x14e4 <lcd_adress+0x50>
    14a0:	21 15       	cp	r18, r1
    14a2:	31 05       	cpc	r19, r1
    14a4:	81 f4       	brne	.+32     	; 0x14c6 <lcd_adress+0x32>
    14a6:	95 b1       	in	r25, 0x05	; 5
    14a8:	90 7f       	andi	r25, 0xF0	; 240
    14aa:	95 b9       	out	0x05, r25	; 5
    14ac:	95 b1       	in	r25, 0x05	; 5
    14ae:	48 2f       	mov	r20, r24
    14b0:	42 95       	swap	r20
    14b2:	4f 70       	andi	r20, 0x0F	; 15
    14b4:	94 2b       	or	r25, r20
    14b6:	95 b9       	out	0x05, r25	; 5
    14b8:	95 b1       	in	r25, 0x05	; 5
    14ba:	90 61       	ori	r25, 0x10	; 16
    14bc:	95 b9       	out	0x05, r25	; 5
    14be:	95 b1       	in	r25, 0x05	; 5
    14c0:	9f 7e       	andi	r25, 0xEF	; 239
    14c2:	95 b9       	out	0x05, r25	; 5
    14c4:	0d c0       	rjmp	.+26     	; 0x14e0 <lcd_adress+0x4c>
    14c6:	95 b1       	in	r25, 0x05	; 5
    14c8:	90 7f       	andi	r25, 0xF0	; 240
    14ca:	95 b9       	out	0x05, r25	; 5
    14cc:	8f 70       	andi	r24, 0x0F	; 15
    14ce:	95 b1       	in	r25, 0x05	; 5
    14d0:	98 2b       	or	r25, r24
    14d2:	95 b9       	out	0x05, r25	; 5
    14d4:	95 b1       	in	r25, 0x05	; 5
    14d6:	90 61       	ori	r25, 0x10	; 16
    14d8:	95 b9       	out	0x05, r25	; 5
    14da:	95 b1       	in	r25, 0x05	; 5
    14dc:	9f 7e       	andi	r25, 0xEF	; 239
    14de:	95 b9       	out	0x05, r25	; 5
    14e0:	2f 5f       	subi	r18, 0xFF	; 255
    14e2:	3f 4f       	sbci	r19, 0xFF	; 255
    14e4:	22 30       	cpi	r18, 0x02	; 2
    14e6:	31 05       	cpc	r19, r1
    14e8:	dc f2       	brlt	.-74     	; 0x14a0 <lcd_adress+0xc>
    14ea:	85 b1       	in	r24, 0x05	; 5
    14ec:	8f 7d       	andi	r24, 0xDF	; 223
    14ee:	85 b9       	out	0x05, r24	; 5
    14f0:	08 95       	ret

Disassembly of section .text.lcd_init:

0000180c <lcd_init>:
	}
	PORTB &= ~(1<<PORTB5);					// Set RS = 0
}
void lcd_init(){
	
	lcd_cmd(0x02);							//RS = 0 D7:D4 = 0010
    180c:	82 e0       	ldi	r24, 0x02	; 2
    180e:	0e 94 bc 0b 	call	0x1778	; 0x1778 <lcd_cmd>
	lcd_cmd(0x02);							//RS = 0 D7:D4 = 0010
    1812:	82 e0       	ldi	r24, 0x02	; 2
    1814:	0e 94 bc 0b 	call	0x1778	; 0x1778 <lcd_cmd>
	lcd_cmd(0x08);							//RS = 0 D7:D4 = 1000
    1818:	88 e0       	ldi	r24, 0x08	; 8
    181a:	0e 94 bc 0b 	call	0x1778	; 0x1778 <lcd_cmd>
    181e:	08 95       	ret

Disassembly of section .text.lcd_off_cursor:

00001832 <lcd_off_cursor>:
	
}

void lcd_off_cursor(){

	lcd_cmd(0x00);							//RS = 0 D7:D4 = 0000
    1832:	80 e0       	ldi	r24, 0x00	; 0
    1834:	0e 94 bc 0b 	call	0x1778	; 0x1778 <lcd_cmd>
	lcd_cmd(0x0C);							//RS = 0 D7:D4 = 1100
    1838:	8c e0       	ldi	r24, 0x0C	; 12
    183a:	0e 94 bc 0b 	call	0x1778	; 0x1778 <lcd_cmd>
    183e:	08 95       	ret

Disassembly of section .text.lcd_default:

00001374 <lcd_default>:
//						DISPLAY LCD
//----------------------------------------------------------

void delay_1(){
	for(int i = 0;i<200;i++){}
}
    1374:	80 e8       	ldi	r24, 0x80	; 128
    1376:	0e 94 4a 0a 	call	0x1494	; 0x1494 <lcd_adress>
    137a:	8d e4       	ldi	r24, 0x4D	; 77
    137c:	0e 94 1b 0a 	call	0x1436	; 0x1436 <lcd_data>
    1380:	81 e8       	ldi	r24, 0x81	; 129
    1382:	0e 94 4a 0a 	call	0x1494	; 0x1494 <lcd_adress>
    1386:	8f e6       	ldi	r24, 0x6F	; 111
    1388:	0e 94 1b 0a 	call	0x1436	; 0x1436 <lcd_data>
    138c:	82 e8       	ldi	r24, 0x82	; 130
    138e:	0e 94 4a 0a 	call	0x1494	; 0x1494 <lcd_adress>
    1392:	84 e6       	ldi	r24, 0x64	; 100
    1394:	0e 94 1b 0a 	call	0x1436	; 0x1436 <lcd_data>
    1398:	83 e8       	ldi	r24, 0x83	; 131
    139a:	0e 94 4a 0a 	call	0x1494	; 0x1494 <lcd_adress>
    139e:	8a e3       	ldi	r24, 0x3A	; 58
    13a0:	0e 94 1b 0a 	call	0x1436	; 0x1436 <lcd_data>
    13a4:	80 ec       	ldi	r24, 0xC0	; 192
    13a6:	0e 94 4a 0a 	call	0x1494	; 0x1494 <lcd_adress>
    13aa:	8d e4       	ldi	r24, 0x4D	; 77
    13ac:	0e 94 1b 0a 	call	0x1436	; 0x1436 <lcd_data>
    13b0:	81 ec       	ldi	r24, 0xC1	; 193
    13b2:	0e 94 4a 0a 	call	0x1494	; 0x1494 <lcd_adress>
    13b6:	83 e7       	ldi	r24, 0x73	; 115
    13b8:	0e 94 1b 0a 	call	0x1436	; 0x1436 <lcd_data>
    13bc:	82 ec       	ldi	r24, 0xC2	; 194
    13be:	0e 94 4a 0a 	call	0x1494	; 0x1494 <lcd_adress>
    13c2:	87 e6       	ldi	r24, 0x67	; 103
    13c4:	0e 94 1b 0a 	call	0x1436	; 0x1436 <lcd_data>
    13c8:	83 ec       	ldi	r24, 0xC3	; 195
    13ca:	0e 94 4a 0a 	call	0x1494	; 0x1494 <lcd_adress>
    13ce:	8a e3       	ldi	r24, 0x3A	; 58
    13d0:	0e 94 1b 0a 	call	0x1436	; 0x1436 <lcd_data>
    13d4:	08 95       	ret

Disassembly of section .text.lcd_mod:

00000688 <lcd_mod>:
 688:	82 30       	cpi	r24, 0x02	; 2
 68a:	91 05       	cpc	r25, r1
 68c:	09 f4       	brne	.+2      	; 0x690 <lcd_mod+0x8>
 68e:	8b c0       	rjmp	.+278    	; 0x7a6 <lcd_mod+0x11e>
 690:	1c f4       	brge	.+6      	; 0x698 <lcd_mod+0x10>
 692:	01 97       	sbiw	r24, 0x01	; 1
 694:	49 f0       	breq	.+18     	; 0x6a8 <lcd_mod+0x20>
 696:	08 95       	ret
 698:	83 30       	cpi	r24, 0x03	; 3
 69a:	91 05       	cpc	r25, r1
 69c:	09 f4       	brne	.+2      	; 0x6a0 <lcd_mod+0x18>
 69e:	05 c1       	rjmp	.+522    	; 0x8aa <__DATA_REGION_LENGTH__+0xaa>
 6a0:	04 97       	sbiw	r24, 0x04	; 4
 6a2:	09 f4       	brne	.+2      	; 0x6a6 <lcd_mod+0x1e>
 6a4:	81 c1       	rjmp	.+770    	; 0x9a8 <__stack+0xa9>
 6a6:	08 95       	ret
 6a8:	85 e8       	ldi	r24, 0x85	; 133
 6aa:	0e 94 4a 0a 	call	0x1494	; 0x1494 <lcd_adress>
 6ae:	81 e4       	ldi	r24, 0x41	; 65
 6b0:	0e 94 1b 0a 	call	0x1436	; 0x1436 <lcd_data>
 6b4:	86 e8       	ldi	r24, 0x86	; 134
 6b6:	0e 94 4a 0a 	call	0x1494	; 0x1494 <lcd_adress>
 6ba:	8d e4       	ldi	r24, 0x4D	; 77
 6bc:	0e 94 1b 0a 	call	0x1436	; 0x1436 <lcd_data>
 6c0:	87 e8       	ldi	r24, 0x87	; 135
 6c2:	0e 94 4a 0a 	call	0x1494	; 0x1494 <lcd_adress>
 6c6:	81 e0       	ldi	r24, 0x01	; 1
 6c8:	0e 94 1b 0a 	call	0x1436	; 0x1436 <lcd_data>
 6cc:	89 e8       	ldi	r24, 0x89	; 137
 6ce:	0e 94 4a 0a 	call	0x1494	; 0x1494 <lcd_adress>
 6d2:	86 e4       	ldi	r24, 0x46	; 70
 6d4:	0e 94 1b 0a 	call	0x1436	; 0x1436 <lcd_data>
 6d8:	8a e8       	ldi	r24, 0x8A	; 138
 6da:	0e 94 4a 0a 	call	0x1494	; 0x1494 <lcd_adress>
 6de:	8a e3       	ldi	r24, 0x3A	; 58
 6e0:	0e 94 1b 0a 	call	0x1436	; 0x1436 <lcd_data>
 6e4:	8d e8       	ldi	r24, 0x8D	; 141
 6e6:	0e 94 4a 0a 	call	0x1494	; 0x1494 <lcd_adress>
 6ea:	80 eb       	ldi	r24, 0xB0	; 176
 6ec:	0e 94 1b 0a 	call	0x1436	; 0x1436 <lcd_data>
 6f0:	8c e8       	ldi	r24, 0x8C	; 140
 6f2:	0e 94 4a 0a 	call	0x1494	; 0x1494 <lcd_adress>
 6f6:	80 eb       	ldi	r24, 0xB0	; 176
 6f8:	0e 94 1b 0a 	call	0x1436	; 0x1436 <lcd_data>
 6fc:	8b e8       	ldi	r24, 0x8B	; 139
 6fe:	0e 94 4a 0a 	call	0x1494	; 0x1494 <lcd_adress>
 702:	80 eb       	ldi	r24, 0xB0	; 176
 704:	0e 94 1b 0a 	call	0x1436	; 0x1436 <lcd_data>
 708:	8e e8       	ldi	r24, 0x8E	; 142
 70a:	0e 94 4a 0a 	call	0x1494	; 0x1494 <lcd_adress>
 70e:	88 e4       	ldi	r24, 0x48	; 72
 710:	0e 94 1b 0a 	call	0x1436	; 0x1436 <lcd_data>
 714:	8f e8       	ldi	r24, 0x8F	; 143
 716:	0e 94 4a 0a 	call	0x1494	; 0x1494 <lcd_adress>
 71a:	8a e7       	ldi	r24, 0x7A	; 122
 71c:	0e 94 1b 0a 	call	0x1436	; 0x1436 <lcd_data>
 720:	85 ec       	ldi	r24, 0xC5	; 197
 722:	0e 94 4a 0a 	call	0x1494	; 0x1494 <lcd_adress>
 726:	80 eb       	ldi	r24, 0xB0	; 176
 728:	0e 94 1b 0a 	call	0x1436	; 0x1436 <lcd_data>
 72c:	86 ec       	ldi	r24, 0xC6	; 198
 72e:	0e 94 4a 0a 	call	0x1494	; 0x1494 <lcd_adress>
 732:	80 eb       	ldi	r24, 0xB0	; 176
 734:	0e 94 1b 0a 	call	0x1436	; 0x1436 <lcd_data>
 738:	87 ec       	ldi	r24, 0xC7	; 199
 73a:	0e 94 4a 0a 	call	0x1494	; 0x1494 <lcd_adress>
 73e:	80 eb       	ldi	r24, 0xB0	; 176
 740:	0e 94 1b 0a 	call	0x1436	; 0x1436 <lcd_data>
 744:	88 ec       	ldi	r24, 0xC8	; 200
 746:	0e 94 4a 0a 	call	0x1494	; 0x1494 <lcd_adress>
 74a:	81 e0       	ldi	r24, 0x01	; 1
 74c:	0e 94 1b 0a 	call	0x1436	; 0x1436 <lcd_data>
 750:	89 ec       	ldi	r24, 0xC9	; 201
 752:	0e 94 4a 0a 	call	0x1494	; 0x1494 <lcd_adress>
 756:	81 e0       	ldi	r24, 0x01	; 1
 758:	0e 94 1b 0a 	call	0x1436	; 0x1436 <lcd_data>
 75c:	8a ec       	ldi	r24, 0xCA	; 202
 75e:	0e 94 4a 0a 	call	0x1494	; 0x1494 <lcd_adress>
 762:	81 e0       	ldi	r24, 0x01	; 1
 764:	0e 94 1b 0a 	call	0x1436	; 0x1436 <lcd_data>
 768:	8b ec       	ldi	r24, 0xCB	; 203
 76a:	0e 94 4a 0a 	call	0x1494	; 0x1494 <lcd_adress>
 76e:	81 e0       	ldi	r24, 0x01	; 1
 770:	0e 94 1b 0a 	call	0x1436	; 0x1436 <lcd_data>
 774:	8c ec       	ldi	r24, 0xCC	; 204
 776:	0e 94 4a 0a 	call	0x1494	; 0x1494 <lcd_adress>
 77a:	81 e0       	ldi	r24, 0x01	; 1
 77c:	0e 94 1b 0a 	call	0x1436	; 0x1436 <lcd_data>
 780:	8d ec       	ldi	r24, 0xCD	; 205
 782:	0e 94 4a 0a 	call	0x1494	; 0x1494 <lcd_adress>
 786:	81 e0       	ldi	r24, 0x01	; 1
 788:	0e 94 1b 0a 	call	0x1436	; 0x1436 <lcd_data>
 78c:	8e ec       	ldi	r24, 0xCE	; 206
 78e:	0e 94 4a 0a 	call	0x1494	; 0x1494 <lcd_adress>
 792:	81 e0       	ldi	r24, 0x01	; 1
 794:	0e 94 1b 0a 	call	0x1436	; 0x1436 <lcd_data>
 798:	8f ec       	ldi	r24, 0xCF	; 207
 79a:	0e 94 4a 0a 	call	0x1494	; 0x1494 <lcd_adress>
 79e:	81 e0       	ldi	r24, 0x01	; 1
 7a0:	0e 94 1b 0a 	call	0x1436	; 0x1436 <lcd_data>
 7a4:	08 95       	ret
 7a6:	85 e8       	ldi	r24, 0x85	; 133
 7a8:	0e 94 4a 0a 	call	0x1494	; 0x1494 <lcd_adress>
 7ac:	86 e4       	ldi	r24, 0x46	; 70
 7ae:	0e 94 1b 0a 	call	0x1436	; 0x1436 <lcd_data>
 7b2:	86 e8       	ldi	r24, 0x86	; 134
 7b4:	0e 94 4a 0a 	call	0x1494	; 0x1494 <lcd_adress>
 7b8:	8d e4       	ldi	r24, 0x4D	; 77
 7ba:	0e 94 1b 0a 	call	0x1436	; 0x1436 <lcd_data>
 7be:	87 e8       	ldi	r24, 0x87	; 135
 7c0:	0e 94 4a 0a 	call	0x1494	; 0x1494 <lcd_adress>
 7c4:	81 e0       	ldi	r24, 0x01	; 1
 7c6:	0e 94 1b 0a 	call	0x1436	; 0x1436 <lcd_data>
 7ca:	89 e8       	ldi	r24, 0x89	; 137
 7cc:	0e 94 4a 0a 	call	0x1494	; 0x1494 <lcd_adress>
 7d0:	89 e8       	ldi	r24, 0x89	; 137
 7d2:	0e 94 4a 0a 	call	0x1494	; 0x1494 <lcd_adress>
 7d6:	86 e4       	ldi	r24, 0x46	; 70
 7d8:	0e 94 1b 0a 	call	0x1436	; 0x1436 <lcd_data>
 7dc:	8a e8       	ldi	r24, 0x8A	; 138
 7de:	0e 94 4a 0a 	call	0x1494	; 0x1494 <lcd_adress>
 7e2:	8a e3       	ldi	r24, 0x3A	; 58
 7e4:	0e 94 1b 0a 	call	0x1436	; 0x1436 <lcd_data>
 7e8:	8d e8       	ldi	r24, 0x8D	; 141
 7ea:	0e 94 4a 0a 	call	0x1494	; 0x1494 <lcd_adress>
 7ee:	80 eb       	ldi	r24, 0xB0	; 176
 7f0:	0e 94 1b 0a 	call	0x1436	; 0x1436 <lcd_data>
 7f4:	8c e8       	ldi	r24, 0x8C	; 140
 7f6:	0e 94 4a 0a 	call	0x1494	; 0x1494 <lcd_adress>
 7fa:	80 eb       	ldi	r24, 0xB0	; 176
 7fc:	0e 94 1b 0a 	call	0x1436	; 0x1436 <lcd_data>
 800:	8b e8       	ldi	r24, 0x8B	; 139
 802:	0e 94 4a 0a 	call	0x1494	; 0x1494 <lcd_adress>
 806:	80 eb       	ldi	r24, 0xB0	; 176
 808:	0e 94 1b 0a 	call	0x1436	; 0x1436 <lcd_data>
 80c:	8e e8       	ldi	r24, 0x8E	; 142
 80e:	0e 94 4a 0a 	call	0x1494	; 0x1494 <lcd_adress>
 812:	88 e4       	ldi	r24, 0x48	; 72
 814:	0e 94 1b 0a 	call	0x1436	; 0x1436 <lcd_data>
 818:	8f e8       	ldi	r24, 0x8F	; 143
 81a:	0e 94 4a 0a 	call	0x1494	; 0x1494 <lcd_adress>
 81e:	8a e7       	ldi	r24, 0x7A	; 122
 820:	0e 94 1b 0a 	call	0x1436	; 0x1436 <lcd_data>
 824:	85 ec       	ldi	r24, 0xC5	; 197
 826:	0e 94 4a 0a 	call	0x1494	; 0x1494 <lcd_adress>
 82a:	80 eb       	ldi	r24, 0xB0	; 176
 82c:	0e 94 1b 0a 	call	0x1436	; 0x1436 <lcd_data>
 830:	86 ec       	ldi	r24, 0xC6	; 198
 832:	0e 94 4a 0a 	call	0x1494	; 0x1494 <lcd_adress>
 836:	80 eb       	ldi	r24, 0xB0	; 176
 838:	0e 94 1b 0a 	call	0x1436	; 0x1436 <lcd_data>
 83c:	87 ec       	ldi	r24, 0xC7	; 199
 83e:	0e 94 4a 0a 	call	0x1494	; 0x1494 <lcd_adress>
 842:	80 eb       	ldi	r24, 0xB0	; 176
 844:	0e 94 1b 0a 	call	0x1436	; 0x1436 <lcd_data>
 848:	88 ec       	ldi	r24, 0xC8	; 200
 84a:	0e 94 4a 0a 	call	0x1494	; 0x1494 <lcd_adress>
 84e:	81 e0       	ldi	r24, 0x01	; 1
 850:	0e 94 1b 0a 	call	0x1436	; 0x1436 <lcd_data>
 854:	89 ec       	ldi	r24, 0xC9	; 201
 856:	0e 94 4a 0a 	call	0x1494	; 0x1494 <lcd_adress>
 85a:	81 e0       	ldi	r24, 0x01	; 1
 85c:	0e 94 1b 0a 	call	0x1436	; 0x1436 <lcd_data>
 860:	8a ec       	ldi	r24, 0xCA	; 202
 862:	0e 94 4a 0a 	call	0x1494	; 0x1494 <lcd_adress>
 866:	81 e0       	ldi	r24, 0x01	; 1
 868:	0e 94 1b 0a 	call	0x1436	; 0x1436 <lcd_data>
 86c:	8b ec       	ldi	r24, 0xCB	; 203
 86e:	0e 94 4a 0a 	call	0x1494	; 0x1494 <lcd_adress>
 872:	81 e0       	ldi	r24, 0x01	; 1
 874:	0e 94 1b 0a 	call	0x1436	; 0x1436 <lcd_data>
 878:	8c ec       	ldi	r24, 0xCC	; 204
 87a:	0e 94 4a 0a 	call	0x1494	; 0x1494 <lcd_adress>
 87e:	81 e0       	ldi	r24, 0x01	; 1
 880:	0e 94 1b 0a 	call	0x1436	; 0x1436 <lcd_data>
 884:	8d ec       	ldi	r24, 0xCD	; 205
 886:	0e 94 4a 0a 	call	0x1494	; 0x1494 <lcd_adress>
 88a:	81 e0       	ldi	r24, 0x01	; 1
 88c:	0e 94 1b 0a 	call	0x1436	; 0x1436 <lcd_data>
 890:	8e ec       	ldi	r24, 0xCE	; 206
 892:	0e 94 4a 0a 	call	0x1494	; 0x1494 <lcd_adress>
 896:	81 e0       	ldi	r24, 0x01	; 1
 898:	0e 94 1b 0a 	call	0x1436	; 0x1436 <lcd_data>
 89c:	8f ec       	ldi	r24, 0xCF	; 207
 89e:	0e 94 4a 0a 	call	0x1494	; 0x1494 <lcd_adress>
 8a2:	81 e0       	ldi	r24, 0x01	; 1
 8a4:	0e 94 1b 0a 	call	0x1436	; 0x1436 <lcd_data>
 8a8:	08 95       	ret
 8aa:	85 e8       	ldi	r24, 0x85	; 133
 8ac:	0e 94 4a 0a 	call	0x1494	; 0x1494 <lcd_adress>
 8b0:	81 e4       	ldi	r24, 0x41	; 65
 8b2:	0e 94 1b 0a 	call	0x1436	; 0x1436 <lcd_data>
 8b6:	86 e8       	ldi	r24, 0x86	; 134
 8b8:	0e 94 4a 0a 	call	0x1494	; 0x1494 <lcd_adress>
 8bc:	83 e5       	ldi	r24, 0x53	; 83
 8be:	0e 94 1b 0a 	call	0x1436	; 0x1436 <lcd_data>
 8c2:	87 e8       	ldi	r24, 0x87	; 135
 8c4:	0e 94 4a 0a 	call	0x1494	; 0x1494 <lcd_adress>
 8c8:	8b e4       	ldi	r24, 0x4B	; 75
 8ca:	0e 94 1b 0a 	call	0x1436	; 0x1436 <lcd_data>
 8ce:	89 e8       	ldi	r24, 0x89	; 137
 8d0:	0e 94 4a 0a 	call	0x1494	; 0x1494 <lcd_adress>
 8d4:	84 e5       	ldi	r24, 0x54	; 84
 8d6:	0e 94 1b 0a 	call	0x1436	; 0x1436 <lcd_data>
 8da:	8a e8       	ldi	r24, 0x8A	; 138
 8dc:	0e 94 4a 0a 	call	0x1494	; 0x1494 <lcd_adress>
 8e0:	8a e3       	ldi	r24, 0x3A	; 58
 8e2:	0e 94 1b 0a 	call	0x1436	; 0x1436 <lcd_data>
 8e6:	8d e8       	ldi	r24, 0x8D	; 141
 8e8:	0e 94 4a 0a 	call	0x1494	; 0x1494 <lcd_adress>
 8ec:	80 eb       	ldi	r24, 0xB0	; 176
 8ee:	0e 94 1b 0a 	call	0x1436	; 0x1436 <lcd_data>
 8f2:	8c e8       	ldi	r24, 0x8C	; 140
 8f4:	0e 94 4a 0a 	call	0x1494	; 0x1494 <lcd_adress>
 8f8:	80 eb       	ldi	r24, 0xB0	; 176
 8fa:	0e 94 1b 0a 	call	0x1436	; 0x1436 <lcd_data>
 8fe:	8b e8       	ldi	r24, 0x8B	; 139
 900:	0e 94 4a 0a 	call	0x1494	; 0x1494 <lcd_adress>
 904:	80 eb       	ldi	r24, 0xB0	; 176
 906:	0e 94 1b 0a 	call	0x1436	; 0x1436 <lcd_data>
 90a:	8e e8       	ldi	r24, 0x8E	; 142
 90c:	0e 94 4a 0a 	call	0x1494	; 0x1494 <lcd_adress>
 910:	82 e6       	ldi	r24, 0x62	; 98
 912:	0e 94 1b 0a 	call	0x1436	; 0x1436 <lcd_data>
 916:	8f e8       	ldi	r24, 0x8F	; 143
 918:	0e 94 4a 0a 	call	0x1494	; 0x1494 <lcd_adress>
 91c:	83 e7       	ldi	r24, 0x73	; 115
 91e:	0e 94 1b 0a 	call	0x1436	; 0x1436 <lcd_data>
 922:	85 ec       	ldi	r24, 0xC5	; 197
 924:	0e 94 4a 0a 	call	0x1494	; 0x1494 <lcd_adress>
 928:	80 eb       	ldi	r24, 0xB0	; 176
 92a:	0e 94 1b 0a 	call	0x1436	; 0x1436 <lcd_data>
 92e:	86 ec       	ldi	r24, 0xC6	; 198
 930:	0e 94 4a 0a 	call	0x1494	; 0x1494 <lcd_adress>
 934:	80 eb       	ldi	r24, 0xB0	; 176
 936:	0e 94 1b 0a 	call	0x1436	; 0x1436 <lcd_data>
 93a:	87 ec       	ldi	r24, 0xC7	; 199
 93c:	0e 94 4a 0a 	call	0x1494	; 0x1494 <lcd_adress>
 940:	8e e2       	ldi	r24, 0x2E	; 46
 942:	0e 94 1b 0a 	call	0x1436	; 0x1436 <lcd_data>
 946:	88 ec       	ldi	r24, 0xC8	; 200
 948:	0e 94 4a 0a 	call	0x1494	; 0x1494 <lcd_adress>
 94c:	80 eb       	ldi	r24, 0xB0	; 176
 94e:	0e 94 1b 0a 	call	0x1436	; 0x1436 <lcd_data>
 952:	89 ec       	ldi	r24, 0xC9	; 201
 954:	0e 94 4a 0a 	call	0x1494	; 0x1494 <lcd_adress>
 958:	80 eb       	ldi	r24, 0xB0	; 176
 95a:	0e 94 1b 0a 	call	0x1436	; 0x1436 <lcd_data>
 95e:	8a ec       	ldi	r24, 0xCA	; 202
 960:	0e 94 4a 0a 	call	0x1494	; 0x1494 <lcd_adress>
 964:	8e e2       	ldi	r24, 0x2E	; 46
 966:	0e 94 1b 0a 	call	0x1436	; 0x1436 <lcd_data>
 96a:	8b ec       	ldi	r24, 0xCB	; 203
 96c:	0e 94 4a 0a 	call	0x1494	; 0x1494 <lcd_adress>
 970:	80 eb       	ldi	r24, 0xB0	; 176
 972:	0e 94 1b 0a 	call	0x1436	; 0x1436 <lcd_data>
 976:	8c ec       	ldi	r24, 0xCC	; 204
 978:	0e 94 4a 0a 	call	0x1494	; 0x1494 <lcd_adress>
 97c:	80 eb       	ldi	r24, 0xB0	; 176
 97e:	0e 94 1b 0a 	call	0x1436	; 0x1436 <lcd_data>
 982:	8d ec       	ldi	r24, 0xCD	; 205
 984:	0e 94 4a 0a 	call	0x1494	; 0x1494 <lcd_adress>
 988:	8e e2       	ldi	r24, 0x2E	; 46
 98a:	0e 94 1b 0a 	call	0x1436	; 0x1436 <lcd_data>
 98e:	8e ec       	ldi	r24, 0xCE	; 206
 990:	0e 94 4a 0a 	call	0x1494	; 0x1494 <lcd_adress>
 994:	80 eb       	ldi	r24, 0xB0	; 176
 996:	0e 94 1b 0a 	call	0x1436	; 0x1436 <lcd_data>
 99a:	8f ec       	ldi	r24, 0xCF	; 207
 99c:	0e 94 4a 0a 	call	0x1494	; 0x1494 <lcd_adress>
 9a0:	80 eb       	ldi	r24, 0xB0	; 176
 9a2:	0e 94 1b 0a 	call	0x1436	; 0x1436 <lcd_data>
 9a6:	08 95       	ret
 9a8:	85 e8       	ldi	r24, 0x85	; 133
 9aa:	0e 94 4a 0a 	call	0x1494	; 0x1494 <lcd_adress>
 9ae:	86 e4       	ldi	r24, 0x46	; 70
 9b0:	0e 94 1b 0a 	call	0x1436	; 0x1436 <lcd_data>
 9b4:	86 e8       	ldi	r24, 0x86	; 134
 9b6:	0e 94 4a 0a 	call	0x1494	; 0x1494 <lcd_adress>
 9ba:	83 e5       	ldi	r24, 0x53	; 83
 9bc:	0e 94 1b 0a 	call	0x1436	; 0x1436 <lcd_data>
 9c0:	87 e8       	ldi	r24, 0x87	; 135
 9c2:	0e 94 4a 0a 	call	0x1494	; 0x1494 <lcd_adress>
 9c6:	8b e4       	ldi	r24, 0x4B	; 75
 9c8:	0e 94 1b 0a 	call	0x1436	; 0x1436 <lcd_data>
 9cc:	89 e8       	ldi	r24, 0x89	; 137
 9ce:	0e 94 4a 0a 	call	0x1494	; 0x1494 <lcd_adress>
 9d2:	84 e5       	ldi	r24, 0x54	; 84
 9d4:	0e 94 1b 0a 	call	0x1436	; 0x1436 <lcd_data>
 9d8:	8a e8       	ldi	r24, 0x8A	; 138
 9da:	0e 94 4a 0a 	call	0x1494	; 0x1494 <lcd_adress>
 9de:	8a e3       	ldi	r24, 0x3A	; 58
 9e0:	0e 94 1b 0a 	call	0x1436	; 0x1436 <lcd_data>
 9e4:	8d e8       	ldi	r24, 0x8D	; 141
 9e6:	0e 94 4a 0a 	call	0x1494	; 0x1494 <lcd_adress>
 9ea:	80 eb       	ldi	r24, 0xB0	; 176
 9ec:	0e 94 1b 0a 	call	0x1436	; 0x1436 <lcd_data>
 9f0:	8c e8       	ldi	r24, 0x8C	; 140
 9f2:	0e 94 4a 0a 	call	0x1494	; 0x1494 <lcd_adress>
 9f6:	80 eb       	ldi	r24, 0xB0	; 176
 9f8:	0e 94 1b 0a 	call	0x1436	; 0x1436 <lcd_data>
 9fc:	8b e8       	ldi	r24, 0x8B	; 139
 9fe:	0e 94 4a 0a 	call	0x1494	; 0x1494 <lcd_adress>
 a02:	80 eb       	ldi	r24, 0xB0	; 176
 a04:	0e 94 1b 0a 	call	0x1436	; 0x1436 <lcd_data>
 a08:	8e e8       	ldi	r24, 0x8E	; 142
 a0a:	0e 94 4a 0a 	call	0x1494	; 0x1494 <lcd_adress>
 a0e:	82 e6       	ldi	r24, 0x62	; 98
 a10:	0e 94 1b 0a 	call	0x1436	; 0x1436 <lcd_data>
 a14:	8f e8       	ldi	r24, 0x8F	; 143
 a16:	0e 94 4a 0a 	call	0x1494	; 0x1494 <lcd_adress>
 a1a:	83 e7       	ldi	r24, 0x73	; 115
 a1c:	0e 94 1b 0a 	call	0x1436	; 0x1436 <lcd_data>
 a20:	85 ec       	ldi	r24, 0xC5	; 197
 a22:	0e 94 4a 0a 	call	0x1494	; 0x1494 <lcd_adress>
 a26:	80 eb       	ldi	r24, 0xB0	; 176
 a28:	0e 94 1b 0a 	call	0x1436	; 0x1436 <lcd_data>
 a2c:	86 ec       	ldi	r24, 0xC6	; 198
 a2e:	0e 94 4a 0a 	call	0x1494	; 0x1494 <lcd_adress>
 a32:	80 eb       	ldi	r24, 0xB0	; 176
 a34:	0e 94 1b 0a 	call	0x1436	; 0x1436 <lcd_data>
 a38:	87 ec       	ldi	r24, 0xC7	; 199
 a3a:	0e 94 4a 0a 	call	0x1494	; 0x1494 <lcd_adress>
 a3e:	8e e2       	ldi	r24, 0x2E	; 46
 a40:	0e 94 1b 0a 	call	0x1436	; 0x1436 <lcd_data>
 a44:	88 ec       	ldi	r24, 0xC8	; 200
 a46:	0e 94 4a 0a 	call	0x1494	; 0x1494 <lcd_adress>
 a4a:	80 eb       	ldi	r24, 0xB0	; 176
 a4c:	0e 94 1b 0a 	call	0x1436	; 0x1436 <lcd_data>
 a50:	89 ec       	ldi	r24, 0xC9	; 201
 a52:	0e 94 4a 0a 	call	0x1494	; 0x1494 <lcd_adress>
 a56:	80 eb       	ldi	r24, 0xB0	; 176
 a58:	0e 94 1b 0a 	call	0x1436	; 0x1436 <lcd_data>
 a5c:	8a ec       	ldi	r24, 0xCA	; 202
 a5e:	0e 94 4a 0a 	call	0x1494	; 0x1494 <lcd_adress>
 a62:	8e e2       	ldi	r24, 0x2E	; 46
 a64:	0e 94 1b 0a 	call	0x1436	; 0x1436 <lcd_data>
 a68:	8b ec       	ldi	r24, 0xCB	; 203
 a6a:	0e 94 4a 0a 	call	0x1494	; 0x1494 <lcd_adress>
 a6e:	80 eb       	ldi	r24, 0xB0	; 176
 a70:	0e 94 1b 0a 	call	0x1436	; 0x1436 <lcd_data>
 a74:	8c ec       	ldi	r24, 0xCC	; 204
 a76:	0e 94 4a 0a 	call	0x1494	; 0x1494 <lcd_adress>
 a7a:	80 eb       	ldi	r24, 0xB0	; 176
 a7c:	0e 94 1b 0a 	call	0x1436	; 0x1436 <lcd_data>
 a80:	8d ec       	ldi	r24, 0xCD	; 205
 a82:	0e 94 4a 0a 	call	0x1494	; 0x1494 <lcd_adress>
 a86:	8e e2       	ldi	r24, 0x2E	; 46
 a88:	0e 94 1b 0a 	call	0x1436	; 0x1436 <lcd_data>
 a8c:	8e ec       	ldi	r24, 0xCE	; 206
 a8e:	0e 94 4a 0a 	call	0x1494	; 0x1494 <lcd_adress>
 a92:	80 eb       	ldi	r24, 0xB0	; 176
 a94:	0e 94 1b 0a 	call	0x1436	; 0x1436 <lcd_data>
 a98:	8f ec       	ldi	r24, 0xCF	; 207
 a9a:	0e 94 4a 0a 	call	0x1494	; 0x1494 <lcd_adress>
 a9e:	80 eb       	ldi	r24, 0xB0	; 176
 aa0:	0e 94 1b 0a 	call	0x1436	; 0x1436 <lcd_data>
 aa4:	08 95       	ret

Disassembly of section .text.mod_select:

00001298 <mod_select>:
    1298:	8f 3f       	cpi	r24, 0xFF	; 255
    129a:	91 05       	cpc	r25, r1
    129c:	09 f0       	breq	.+2      	; 0x12a0 <mod_select+0x8>
    129e:	48 f4       	brcc	.+18     	; 0x12b2 <mod_select+0x1a>
    12a0:	81 e0       	ldi	r24, 0x01	; 1
    12a2:	90 e0       	ldi	r25, 0x00	; 0
    12a4:	90 93 2b 01 	sts	0x012B, r25	; 0x80012b <mod+0x1>
    12a8:	80 93 2a 01 	sts	0x012A, r24	; 0x80012a <mod>
    12ac:	0e 94 44 03 	call	0x688	; 0x688 <lcd_mod>
    12b0:	08 95       	ret
    12b2:	9c 01       	movw	r18, r24
    12b4:	3a 95       	dec	r19
    12b6:	2f 3f       	cpi	r18, 0xFF	; 255
    12b8:	31 05       	cpc	r19, r1
    12ba:	48 f4       	brcc	.+18     	; 0x12ce <mod_select+0x36>
    12bc:	82 e0       	ldi	r24, 0x02	; 2
    12be:	90 e0       	ldi	r25, 0x00	; 0
    12c0:	90 93 2b 01 	sts	0x012B, r25	; 0x80012b <mod+0x1>
    12c4:	80 93 2a 01 	sts	0x012A, r24	; 0x80012a <mod>
    12c8:	0e 94 44 03 	call	0x688	; 0x688 <lcd_mod>
    12cc:	08 95       	ret
    12ce:	9c 01       	movw	r18, r24
    12d0:	2f 5f       	subi	r18, 0xFF	; 255
    12d2:	31 40       	sbci	r19, 0x01	; 1
    12d4:	2f 3f       	cpi	r18, 0xFF	; 255
    12d6:	31 05       	cpc	r19, r1
    12d8:	48 f4       	brcc	.+18     	; 0x12ec <mod_select+0x54>
    12da:	83 e0       	ldi	r24, 0x03	; 3
    12dc:	90 e0       	ldi	r25, 0x00	; 0
    12de:	90 93 2b 01 	sts	0x012B, r25	; 0x80012b <mod+0x1>
    12e2:	80 93 2a 01 	sts	0x012A, r24	; 0x80012a <mod>
    12e6:	0e 94 44 03 	call	0x688	; 0x688 <lcd_mod>
    12ea:	08 95       	ret
    12ec:	8e 5f       	subi	r24, 0xFE	; 254
    12ee:	92 40       	sbci	r25, 0x02	; 2
    12f0:	82 30       	cpi	r24, 0x02	; 2
    12f2:	91 40       	sbci	r25, 0x01	; 1
    12f4:	40 f4       	brcc	.+16     	; 0x1306 <mod_select+0x6e>
    12f6:	84 e0       	ldi	r24, 0x04	; 4
    12f8:	90 e0       	ldi	r25, 0x00	; 0
    12fa:	90 93 2b 01 	sts	0x012B, r25	; 0x80012b <mod+0x1>
    12fe:	80 93 2a 01 	sts	0x012A, r24	; 0x80012a <mod>
    1302:	0e 94 44 03 	call	0x688	; 0x688 <lcd_mod>
    1306:	08 95       	ret

Disassembly of section .text.modulacao:

00001840 <modulacao>:
    }
}

void modulacao()
{
	mod_select (adc_value);
    1840:	80 91 2c 01 	lds	r24, 0x012C	; 0x80012c <adc_value>
    1844:	90 91 2d 01 	lds	r25, 0x012D	; 0x80012d <adc_value+0x1>
    1848:	0e 94 4c 09 	call	0x1298	; 0x1298 <mod_select>
    184c:	08 95       	ret

Disassembly of section .text.lcd_number:

000013d6 <lcd_number>:
//						DISPLAY LCD
//----------------------------------------------------------

void delay_1(){
	for(int i = 0;i<200;i++){}
}
    13d6:	8a 30       	cpi	r24, 0x0A	; 10
    13d8:	91 05       	cpc	r25, r1
    13da:	60 f5       	brcc	.+88     	; 0x1434 <lcd_number+0x5e>
    13dc:	fc 01       	movw	r30, r24
    13de:	ec 5c       	subi	r30, 0xCC	; 204
    13e0:	ff 4f       	sbci	r31, 0xFF	; 255
    13e2:	0c 94 50 0c 	jmp	0x18a0	; 0x18a0 <__tablejump2__>
    13e6:	80 e3       	ldi	r24, 0x30	; 48
    13e8:	0e 94 1b 0a 	call	0x1436	; 0x1436 <lcd_data>
    13ec:	08 95       	ret
    13ee:	81 e3       	ldi	r24, 0x31	; 49
    13f0:	0e 94 1b 0a 	call	0x1436	; 0x1436 <lcd_data>
    13f4:	08 95       	ret
    13f6:	82 e3       	ldi	r24, 0x32	; 50
    13f8:	0e 94 1b 0a 	call	0x1436	; 0x1436 <lcd_data>
    13fc:	08 95       	ret
    13fe:	83 e3       	ldi	r24, 0x33	; 51
    1400:	0e 94 1b 0a 	call	0x1436	; 0x1436 <lcd_data>
    1404:	08 95       	ret
    1406:	84 e3       	ldi	r24, 0x34	; 52
    1408:	0e 94 1b 0a 	call	0x1436	; 0x1436 <lcd_data>
    140c:	08 95       	ret
    140e:	85 e3       	ldi	r24, 0x35	; 53
    1410:	0e 94 1b 0a 	call	0x1436	; 0x1436 <lcd_data>
    1414:	08 95       	ret
    1416:	86 e3       	ldi	r24, 0x36	; 54
    1418:	0e 94 1b 0a 	call	0x1436	; 0x1436 <lcd_data>
    141c:	08 95       	ret
    141e:	87 e3       	ldi	r24, 0x37	; 55
    1420:	0e 94 1b 0a 	call	0x1436	; 0x1436 <lcd_data>
    1424:	08 95       	ret
    1426:	88 e3       	ldi	r24, 0x38	; 56
    1428:	0e 94 1b 0a 	call	0x1436	; 0x1436 <lcd_data>
    142c:	08 95       	ret
    142e:	89 e3       	ldi	r24, 0x39	; 57
    1430:	0e 94 1b 0a 	call	0x1436	; 0x1436 <lcd_data>
    1434:	08 95       	ret

Disassembly of section .text.separate_digit:

00001550 <separate_digit>:
    1550:	10 92 27 01 	sts	0x0127, r1	; 0x800127 <de+0x1>
    1554:	10 92 26 01 	sts	0x0126, r1	; 0x800126 <de>
    1558:	10 92 25 01 	sts	0x0125, r1	; 0x800125 <ce+0x1>
    155c:	10 92 24 01 	sts	0x0124, r1	; 0x800124 <ce>
    1560:	84 36       	cpi	r24, 0x64	; 100
    1562:	91 05       	cpc	r25, r1
    1564:	6c f0       	brlt	.+26     	; 0x1580 <separate_digit+0x30>
    1566:	84 56       	subi	r24, 0x64	; 100
    1568:	91 09       	sbc	r25, r1
    156a:	20 91 24 01 	lds	r18, 0x0124	; 0x800124 <ce>
    156e:	30 91 25 01 	lds	r19, 0x0125	; 0x800125 <ce+0x1>
    1572:	2f 5f       	subi	r18, 0xFF	; 255
    1574:	3f 4f       	sbci	r19, 0xFF	; 255
    1576:	30 93 25 01 	sts	0x0125, r19	; 0x800125 <ce+0x1>
    157a:	20 93 24 01 	sts	0x0124, r18	; 0x800124 <ce>
    157e:	f0 cf       	rjmp	.-32     	; 0x1560 <separate_digit+0x10>
    1580:	8a 30       	cpi	r24, 0x0A	; 10
    1582:	91 05       	cpc	r25, r1
    1584:	64 f0       	brlt	.+24     	; 0x159e <separate_digit+0x4e>
    1586:	0a 97       	sbiw	r24, 0x0a	; 10
    1588:	20 91 26 01 	lds	r18, 0x0126	; 0x800126 <de>
    158c:	30 91 27 01 	lds	r19, 0x0127	; 0x800127 <de+0x1>
    1590:	2f 5f       	subi	r18, 0xFF	; 255
    1592:	3f 4f       	sbci	r19, 0xFF	; 255
    1594:	30 93 27 01 	sts	0x0127, r19	; 0x800127 <de+0x1>
    1598:	20 93 26 01 	sts	0x0126, r18	; 0x800126 <de>
    159c:	f1 cf       	rjmp	.-30     	; 0x1580 <separate_digit+0x30>
    159e:	90 93 29 01 	sts	0x0129, r25	; 0x800129 <un+0x1>
    15a2:	80 93 28 01 	sts	0x0128, r24	; 0x800128 <un>
    15a6:	08 95       	ret

Disassembly of section .text.lcd_port:

00001308 <lcd_port>:
    1308:	0e 94 a8 0a 	call	0x1550	; 0x1550 <separate_digit>
    130c:	89 e8       	ldi	r24, 0x89	; 137
    130e:	0e 94 4a 0a 	call	0x1494	; 0x1494 <lcd_adress>
    1312:	80 e5       	ldi	r24, 0x50	; 80
    1314:	0e 94 1b 0a 	call	0x1436	; 0x1436 <lcd_data>
    1318:	8a e8       	ldi	r24, 0x8A	; 138
    131a:	0e 94 4a 0a 	call	0x1494	; 0x1494 <lcd_adress>
    131e:	8a e3       	ldi	r24, 0x3A	; 58
    1320:	0e 94 1b 0a 	call	0x1436	; 0x1436 <lcd_data>
    1324:	8e e8       	ldi	r24, 0x8E	; 142
    1326:	0e 94 4a 0a 	call	0x1494	; 0x1494 <lcd_adress>
    132a:	88 e4       	ldi	r24, 0x48	; 72
    132c:	0e 94 1b 0a 	call	0x1436	; 0x1436 <lcd_data>
    1330:	8f e8       	ldi	r24, 0x8F	; 143
    1332:	0e 94 4a 0a 	call	0x1494	; 0x1494 <lcd_adress>
    1336:	8a e7       	ldi	r24, 0x7A	; 122
    1338:	0e 94 1b 0a 	call	0x1436	; 0x1436 <lcd_data>
    133c:	8b e8       	ldi	r24, 0x8B	; 139
    133e:	0e 94 4a 0a 	call	0x1494	; 0x1494 <lcd_adress>
    1342:	80 91 24 01 	lds	r24, 0x0124	; 0x800124 <ce>
    1346:	90 91 25 01 	lds	r25, 0x0125	; 0x800125 <ce+0x1>
    134a:	0e 94 eb 09 	call	0x13d6	; 0x13d6 <lcd_number>
    134e:	8c e8       	ldi	r24, 0x8C	; 140
    1350:	0e 94 4a 0a 	call	0x1494	; 0x1494 <lcd_adress>
    1354:	80 91 26 01 	lds	r24, 0x0126	; 0x800126 <de>
    1358:	90 91 27 01 	lds	r25, 0x0127	; 0x800127 <de+0x1>
    135c:	0e 94 eb 09 	call	0x13d6	; 0x13d6 <lcd_number>
    1360:	8d e8       	ldi	r24, 0x8D	; 141
    1362:	0e 94 4a 0a 	call	0x1494	; 0x1494 <lcd_adress>
    1366:	80 91 28 01 	lds	r24, 0x0128	; 0x800128 <un>
    136a:	90 91 29 01 	lds	r25, 0x0129	; 0x800129 <un+0x1>
    136e:	0e 94 eb 09 	call	0x13d6	; 0x13d6 <lcd_number>
    1372:	08 95       	ret

Disassembly of section .text.portadora:

000017f2 <portadora>:
	mod_select (adc_value);
}

void portadora()
{
	fp = freq_limit (adc_value);
    17f2:	80 91 2c 01 	lds	r24, 0x012C	; 0x80012c <adc_value>
    17f6:	90 91 2d 01 	lds	r25, 0x012D	; 0x80012d <adc_value+0x1>
    17fa:	0e 94 ec 0b 	call	0x17d8	; 0x17d8 <freq_limit>
    17fe:	90 93 2f 01 	sts	0x012F, r25	; 0x80012f <fp+0x1>
    1802:	80 93 2e 01 	sts	0x012E, r24	; 0x80012e <fp>
	lcd_port(fp);
    1806:	0e 94 84 09 	call	0x1308	; 0x1308 <lcd_port>
    180a:	08 95       	ret

Disassembly of section .text.lcd_calc:

00001152 <lcd_calc>:
//						DISPLAY LCD
//----------------------------------------------------------

void delay_1(){
	for(int i = 0;i<200;i++){}
}
    1152:	cf 93       	push	r28
    1154:	df 93       	push	r29
    1156:	ec 01       	movw	r28, r24
    1158:	85 ec       	ldi	r24, 0xC5	; 197
    115a:	0e 94 4a 0a 	call	0x1494	; 0x1494 <lcd_adress>
    115e:	83 e4       	ldi	r24, 0x43	; 67
    1160:	0e 94 1b 0a 	call	0x1436	; 0x1436 <lcd_data>
    1164:	86 ec       	ldi	r24, 0xC6	; 198
    1166:	0e 94 4a 0a 	call	0x1494	; 0x1494 <lcd_adress>
    116a:	81 e4       	ldi	r24, 0x41	; 65
    116c:	0e 94 1b 0a 	call	0x1436	; 0x1436 <lcd_data>
    1170:	87 ec       	ldi	r24, 0xC7	; 199
    1172:	0e 94 4a 0a 	call	0x1494	; 0x1494 <lcd_adress>
    1176:	8c e4       	ldi	r24, 0x4C	; 76
    1178:	0e 94 1b 0a 	call	0x1436	; 0x1436 <lcd_data>
    117c:	88 ec       	ldi	r24, 0xC8	; 200
    117e:	0e 94 4a 0a 	call	0x1494	; 0x1494 <lcd_adress>
    1182:	83 e4       	ldi	r24, 0x43	; 67
    1184:	0e 94 1b 0a 	call	0x1436	; 0x1436 <lcd_data>
    1188:	89 ec       	ldi	r24, 0xC9	; 201
    118a:	0e 94 4a 0a 	call	0x1494	; 0x1494 <lcd_adress>
    118e:	85 e5       	ldi	r24, 0x55	; 85
    1190:	0e 94 1b 0a 	call	0x1436	; 0x1436 <lcd_data>
    1194:	8a ec       	ldi	r24, 0xCA	; 202
    1196:	0e 94 4a 0a 	call	0x1494	; 0x1494 <lcd_adress>
    119a:	8c e4       	ldi	r24, 0x4C	; 76
    119c:	0e 94 1b 0a 	call	0x1436	; 0x1436 <lcd_data>
    11a0:	8b ec       	ldi	r24, 0xCB	; 203
    11a2:	0e 94 4a 0a 	call	0x1494	; 0x1494 <lcd_adress>
    11a6:	81 e4       	ldi	r24, 0x41	; 65
    11a8:	0e 94 1b 0a 	call	0x1436	; 0x1436 <lcd_data>
    11ac:	8c ec       	ldi	r24, 0xCC	; 204
    11ae:	0e 94 4a 0a 	call	0x1494	; 0x1494 <lcd_adress>
    11b2:	8e e4       	ldi	r24, 0x4E	; 78
    11b4:	0e 94 1b 0a 	call	0x1436	; 0x1436 <lcd_data>
    11b8:	8d ec       	ldi	r24, 0xCD	; 205
    11ba:	0e 94 4a 0a 	call	0x1494	; 0x1494 <lcd_adress>
    11be:	84 e4       	ldi	r24, 0x44	; 68
    11c0:	0e 94 1b 0a 	call	0x1436	; 0x1436 <lcd_data>
    11c4:	8e ec       	ldi	r24, 0xCE	; 206
    11c6:	0e 94 4a 0a 	call	0x1494	; 0x1494 <lcd_adress>
    11ca:	8f e4       	ldi	r24, 0x4F	; 79
    11cc:	0e 94 1b 0a 	call	0x1436	; 0x1436 <lcd_data>
    11d0:	8f ec       	ldi	r24, 0xCF	; 207
    11d2:	0e 94 4a 0a 	call	0x1494	; 0x1494 <lcd_adress>
    11d6:	81 e0       	ldi	r24, 0x01	; 1
    11d8:	0e 94 1b 0a 	call	0x1436	; 0x1436 <lcd_data>
    11dc:	ce 01       	movw	r24, r28
    11de:	0e 94 a8 0a 	call	0x1550	; 0x1550 <separate_digit>
    11e2:	8b e8       	ldi	r24, 0x8B	; 139
    11e4:	0e 94 4a 0a 	call	0x1494	; 0x1494 <lcd_adress>
    11e8:	80 91 24 01 	lds	r24, 0x0124	; 0x800124 <ce>
    11ec:	90 91 25 01 	lds	r25, 0x0125	; 0x800125 <ce+0x1>
    11f0:	0e 94 eb 09 	call	0x13d6	; 0x13d6 <lcd_number>
    11f4:	8c e8       	ldi	r24, 0x8C	; 140
    11f6:	0e 94 4a 0a 	call	0x1494	; 0x1494 <lcd_adress>
    11fa:	80 91 26 01 	lds	r24, 0x0126	; 0x800126 <de>
    11fe:	90 91 27 01 	lds	r25, 0x0127	; 0x800127 <de+0x1>
    1202:	0e 94 eb 09 	call	0x13d6	; 0x13d6 <lcd_number>
    1206:	8d e8       	ldi	r24, 0x8D	; 141
    1208:	0e 94 4a 0a 	call	0x1494	; 0x1494 <lcd_adress>
    120c:	80 91 28 01 	lds	r24, 0x0128	; 0x800128 <un>
    1210:	90 91 29 01 	lds	r25, 0x0129	; 0x800129 <un+0x1>
    1214:	0e 94 eb 09 	call	0x13d6	; 0x13d6 <lcd_number>
    1218:	df 91       	pop	r29
    121a:	cf 91       	pop	r28
    121c:	08 95       	ret

Disassembly of section .text.lcd_R_analog:

00000cd2 <lcd_R_analog>:
 cd2:	cf 93       	push	r28
 cd4:	df 93       	push	r29
 cd6:	ec 01       	movw	r28, r24
 cd8:	60 91 2c 01 	lds	r22, 0x012C	; 0x80012c <adc_value>
 cdc:	70 91 2d 01 	lds	r23, 0x012D	; 0x80012d <adc_value+0x1>
 ce0:	80 e0       	ldi	r24, 0x00	; 0
 ce2:	90 e0       	ldi	r25, 0x00	; 0
 ce4:	0e 94 0f 09 	call	0x121e	; 0x121e <__floatunsisf>
 ce8:	26 e6       	ldi	r18, 0x66	; 102
 cea:	36 e6       	ldi	r19, 0x66	; 102
 cec:	46 e6       	ldi	r20, 0x66	; 102
 cee:	5f e3       	ldi	r21, 0x3F	; 63
 cf0:	0e 94 69 0c 	call	0x18d2	; 0x18d2 <__mulsf3>
 cf4:	0e 94 79 0a 	call	0x14f2	; 0x14f2 <__fixunssfsi>
 cf8:	cb 01       	movw	r24, r22
 cfa:	0e 94 a8 0a 	call	0x1550	; 0x1550 <separate_digit>
 cfe:	85 ec       	ldi	r24, 0xC5	; 197
 d00:	0e 94 4a 0a 	call	0x1494	; 0x1494 <lcd_adress>
 d04:	80 91 24 01 	lds	r24, 0x0124	; 0x800124 <ce>
 d08:	90 91 25 01 	lds	r25, 0x0125	; 0x800125 <ce+0x1>
 d0c:	0e 94 eb 09 	call	0x13d6	; 0x13d6 <lcd_number>
 d10:	86 ec       	ldi	r24, 0xC6	; 198
 d12:	0e 94 4a 0a 	call	0x1494	; 0x1494 <lcd_adress>
 d16:	80 91 26 01 	lds	r24, 0x0126	; 0x800126 <de>
 d1a:	90 91 27 01 	lds	r25, 0x0127	; 0x800127 <de+0x1>
 d1e:	0e 94 eb 09 	call	0x13d6	; 0x13d6 <lcd_number>
 d22:	87 ec       	ldi	r24, 0xC7	; 199
 d24:	0e 94 4a 0a 	call	0x1494	; 0x1494 <lcd_adress>
 d28:	80 91 28 01 	lds	r24, 0x0128	; 0x800128 <un>
 d2c:	90 91 29 01 	lds	r25, 0x0129	; 0x800129 <un+0x1>
 d30:	0e 94 eb 09 	call	0x13d6	; 0x13d6 <lcd_number>
 d34:	88 ec       	ldi	r24, 0xC8	; 200
 d36:	0e 94 4a 0a 	call	0x1494	; 0x1494 <lcd_adress>
 d3a:	81 e0       	ldi	r24, 0x01	; 1
 d3c:	0e 94 1b 0a 	call	0x1436	; 0x1436 <lcd_data>
 d40:	89 ec       	ldi	r24, 0xC9	; 201
 d42:	0e 94 4a 0a 	call	0x1494	; 0x1494 <lcd_adress>
 d46:	81 e0       	ldi	r24, 0x01	; 1
 d48:	0e 94 1b 0a 	call	0x1436	; 0x1436 <lcd_data>
 d4c:	8a ec       	ldi	r24, 0xCA	; 202
 d4e:	0e 94 4a 0a 	call	0x1494	; 0x1494 <lcd_adress>
 d52:	81 e0       	ldi	r24, 0x01	; 1
 d54:	0e 94 1b 0a 	call	0x1436	; 0x1436 <lcd_data>
 d58:	8b ec       	ldi	r24, 0xCB	; 203
 d5a:	0e 94 4a 0a 	call	0x1494	; 0x1494 <lcd_adress>
 d5e:	81 e0       	ldi	r24, 0x01	; 1
 d60:	0e 94 1b 0a 	call	0x1436	; 0x1436 <lcd_data>
 d64:	8c ec       	ldi	r24, 0xCC	; 204
 d66:	0e 94 4a 0a 	call	0x1494	; 0x1494 <lcd_adress>
 d6a:	81 e0       	ldi	r24, 0x01	; 1
 d6c:	0e 94 1b 0a 	call	0x1436	; 0x1436 <lcd_data>
 d70:	8d ec       	ldi	r24, 0xCD	; 205
 d72:	0e 94 4a 0a 	call	0x1494	; 0x1494 <lcd_adress>
 d76:	81 e0       	ldi	r24, 0x01	; 1
 d78:	0e 94 1b 0a 	call	0x1436	; 0x1436 <lcd_data>
 d7c:	8e ec       	ldi	r24, 0xCE	; 206
 d7e:	0e 94 4a 0a 	call	0x1494	; 0x1494 <lcd_adress>
 d82:	81 e0       	ldi	r24, 0x01	; 1
 d84:	0e 94 1b 0a 	call	0x1436	; 0x1436 <lcd_data>
 d88:	8f ec       	ldi	r24, 0xCF	; 207
 d8a:	0e 94 4a 0a 	call	0x1494	; 0x1494 <lcd_adress>
 d8e:	81 e0       	ldi	r24, 0x01	; 1
 d90:	0e 94 1b 0a 	call	0x1436	; 0x1436 <lcd_data>
 d94:	89 e8       	ldi	r24, 0x89	; 137
 d96:	0e 94 4a 0a 	call	0x1494	; 0x1494 <lcd_adress>
 d9a:	86 e4       	ldi	r24, 0x46	; 70
 d9c:	0e 94 1b 0a 	call	0x1436	; 0x1436 <lcd_data>
 da0:	8a e8       	ldi	r24, 0x8A	; 138
 da2:	0e 94 4a 0a 	call	0x1494	; 0x1494 <lcd_adress>
 da6:	8a e3       	ldi	r24, 0x3A	; 58
 da8:	0e 94 1b 0a 	call	0x1436	; 0x1436 <lcd_data>
 dac:	ce 01       	movw	r24, r28
 dae:	0e 94 a8 0a 	call	0x1550	; 0x1550 <separate_digit>
 db2:	8b e8       	ldi	r24, 0x8B	; 139
 db4:	0e 94 4a 0a 	call	0x1494	; 0x1494 <lcd_adress>
 db8:	80 91 24 01 	lds	r24, 0x0124	; 0x800124 <ce>
 dbc:	90 91 25 01 	lds	r25, 0x0125	; 0x800125 <ce+0x1>
 dc0:	0e 94 eb 09 	call	0x13d6	; 0x13d6 <lcd_number>
 dc4:	8c e8       	ldi	r24, 0x8C	; 140
 dc6:	0e 94 4a 0a 	call	0x1494	; 0x1494 <lcd_adress>
 dca:	80 91 26 01 	lds	r24, 0x0126	; 0x800126 <de>
 dce:	90 91 27 01 	lds	r25, 0x0127	; 0x800127 <de+0x1>
 dd2:	0e 94 eb 09 	call	0x13d6	; 0x13d6 <lcd_number>
 dd6:	8d e8       	ldi	r24, 0x8D	; 141
 dd8:	0e 94 4a 0a 	call	0x1494	; 0x1494 <lcd_adress>
 ddc:	80 91 28 01 	lds	r24, 0x0128	; 0x800128 <un>
 de0:	90 91 29 01 	lds	r25, 0x0129	; 0x800129 <un+0x1>
 de4:	0e 94 eb 09 	call	0x13d6	; 0x13d6 <lcd_number>
 de8:	df 91       	pop	r29
 dea:	cf 91       	pop	r28
 dec:	08 95       	ret

Disassembly of section .text.lcd_R_digit:

00000dee <lcd_R_digit>:
 dee:	cf 93       	push	r28
 df0:	df 93       	push	r29
 df2:	ec 01       	movw	r28, r24
 df4:	cb 01       	movw	r24, r22
 df6:	0e 94 a8 0a 	call	0x1550	; 0x1550 <separate_digit>
 dfa:	85 ec       	ldi	r24, 0xC5	; 197
 dfc:	0e 94 4a 0a 	call	0x1494	; 0x1494 <lcd_adress>
 e00:	88 81       	ld	r24, Y
 e02:	0e 94 1b 0a 	call	0x1436	; 0x1436 <lcd_data>
 e06:	86 ec       	ldi	r24, 0xC6	; 198
 e08:	0e 94 4a 0a 	call	0x1494	; 0x1494 <lcd_adress>
 e0c:	89 81       	ldd	r24, Y+1	; 0x01
 e0e:	0e 94 1b 0a 	call	0x1436	; 0x1436 <lcd_data>
 e12:	87 ec       	ldi	r24, 0xC7	; 199
 e14:	0e 94 4a 0a 	call	0x1494	; 0x1494 <lcd_adress>
 e18:	8e e2       	ldi	r24, 0x2E	; 46
 e1a:	0e 94 1b 0a 	call	0x1436	; 0x1436 <lcd_data>
 e1e:	88 ec       	ldi	r24, 0xC8	; 200
 e20:	0e 94 4a 0a 	call	0x1494	; 0x1494 <lcd_adress>
 e24:	8a 81       	ldd	r24, Y+2	; 0x02
 e26:	0e 94 1b 0a 	call	0x1436	; 0x1436 <lcd_data>
 e2a:	89 ec       	ldi	r24, 0xC9	; 201
 e2c:	0e 94 4a 0a 	call	0x1494	; 0x1494 <lcd_adress>
 e30:	8b 81       	ldd	r24, Y+3	; 0x03
 e32:	0e 94 1b 0a 	call	0x1436	; 0x1436 <lcd_data>
 e36:	8a ec       	ldi	r24, 0xCA	; 202
 e38:	0e 94 4a 0a 	call	0x1494	; 0x1494 <lcd_adress>
 e3c:	8e e2       	ldi	r24, 0x2E	; 46
 e3e:	0e 94 1b 0a 	call	0x1436	; 0x1436 <lcd_data>
 e42:	8b ec       	ldi	r24, 0xCB	; 203
 e44:	0e 94 4a 0a 	call	0x1494	; 0x1494 <lcd_adress>
 e48:	8c 81       	ldd	r24, Y+4	; 0x04
 e4a:	0e 94 1b 0a 	call	0x1436	; 0x1436 <lcd_data>
 e4e:	8c ec       	ldi	r24, 0xCC	; 204
 e50:	0e 94 4a 0a 	call	0x1494	; 0x1494 <lcd_adress>
 e54:	8d 81       	ldd	r24, Y+5	; 0x05
 e56:	0e 94 1b 0a 	call	0x1436	; 0x1436 <lcd_data>
 e5a:	8d ec       	ldi	r24, 0xCD	; 205
 e5c:	0e 94 4a 0a 	call	0x1494	; 0x1494 <lcd_adress>
 e60:	8e e2       	ldi	r24, 0x2E	; 46
 e62:	0e 94 1b 0a 	call	0x1436	; 0x1436 <lcd_data>
 e66:	8e ec       	ldi	r24, 0xCE	; 206
 e68:	0e 94 4a 0a 	call	0x1494	; 0x1494 <lcd_adress>
 e6c:	8e 81       	ldd	r24, Y+6	; 0x06
 e6e:	0e 94 1b 0a 	call	0x1436	; 0x1436 <lcd_data>
 e72:	8f ec       	ldi	r24, 0xCF	; 207
 e74:	0e 94 4a 0a 	call	0x1494	; 0x1494 <lcd_adress>
 e78:	8f 81       	ldd	r24, Y+7	; 0x07
 e7a:	0e 94 1b 0a 	call	0x1436	; 0x1436 <lcd_data>
 e7e:	89 e8       	ldi	r24, 0x89	; 137
 e80:	0e 94 4a 0a 	call	0x1494	; 0x1494 <lcd_adress>
 e84:	84 e5       	ldi	r24, 0x54	; 84
 e86:	0e 94 1b 0a 	call	0x1436	; 0x1436 <lcd_data>
 e8a:	8a e8       	ldi	r24, 0x8A	; 138
 e8c:	0e 94 4a 0a 	call	0x1494	; 0x1494 <lcd_adress>
 e90:	8a e3       	ldi	r24, 0x3A	; 58
 e92:	0e 94 1b 0a 	call	0x1436	; 0x1436 <lcd_data>
 e96:	8b e8       	ldi	r24, 0x8B	; 139
 e98:	0e 94 4a 0a 	call	0x1494	; 0x1494 <lcd_adress>
 e9c:	80 91 24 01 	lds	r24, 0x0124	; 0x800124 <ce>
 ea0:	90 91 25 01 	lds	r25, 0x0125	; 0x800125 <ce+0x1>
 ea4:	0e 94 eb 09 	call	0x13d6	; 0x13d6 <lcd_number>
 ea8:	8c e8       	ldi	r24, 0x8C	; 140
 eaa:	0e 94 4a 0a 	call	0x1494	; 0x1494 <lcd_adress>
 eae:	80 91 26 01 	lds	r24, 0x0126	; 0x800126 <de>
 eb2:	90 91 27 01 	lds	r25, 0x0127	; 0x800127 <de+0x1>
 eb6:	0e 94 eb 09 	call	0x13d6	; 0x13d6 <lcd_number>
 eba:	8d e8       	ldi	r24, 0x8D	; 141
 ebc:	0e 94 4a 0a 	call	0x1494	; 0x1494 <lcd_adress>
 ec0:	80 91 28 01 	lds	r24, 0x0128	; 0x800128 <un>
 ec4:	90 91 29 01 	lds	r25, 0x0129	; 0x800129 <un+0x1>
 ec8:	0e 94 eb 09 	call	0x13d6	; 0x13d6 <lcd_number>
 ecc:	df 91       	pop	r29
 ece:	cf 91       	pop	r28
 ed0:	08 95       	ret

Disassembly of section .text.main:

0000012a <main>:
 12a:	8f ef       	ldi	r24, 0xFF	; 255
 12c:	8a b9       	out	0x0a, r24	; 10
 12e:	84 b9       	out	0x04, r24	; 4
 130:	17 b8       	out	0x07, r1	; 7
 132:	18 b8       	out	0x08, r1	; 8
 134:	15 b8       	out	0x05, r1	; 5
 136:	f8 94       	cli
 138:	0e 94 10 0c 	call	0x1820	; 0x1820 <adc_initiate>
 13c:	78 94       	sei
 13e:	0e 94 06 0c 	call	0x180c	; 0x180c <lcd_init>
 142:	0e 94 19 0c 	call	0x1832	; 0x1832 <lcd_off_cursor>
 146:	0e 94 ba 09 	call	0x1374	; 0x1374 <lcd_default>
 14a:	81 e0       	ldi	r24, 0x01	; 1
 14c:	90 e0       	ldi	r25, 0x00	; 0
 14e:	0e 94 44 03 	call	0x688	; 0x688 <lcd_mod>
 152:	22 c0       	rjmp	.+68     	; 0x198 <main+0x6e>
 154:	32 9b       	sbis	0x06, 2	; 6
 156:	20 c0       	rjmp	.+64     	; 0x198 <main+0x6e>
 158:	ec e7       	ldi	r30, 0x7C	; 124
 15a:	f0 e0       	ldi	r31, 0x00	; 0
 15c:	80 81       	ld	r24, Z
 15e:	81 60       	ori	r24, 0x01	; 1
 160:	80 83       	st	Z, r24
 162:	02 c0       	rjmp	.+4      	; 0x168 <main+0x3e>
 164:	0e 94 20 0c 	call	0x1840	; 0x1840 <modulacao>
 168:	33 9b       	sbis	0x06, 3	; 6
 16a:	fc cf       	rjmp	.-8      	; 0x164 <main+0x3a>
 16c:	02 c0       	rjmp	.+4      	; 0x172 <main+0x48>
 16e:	0e 94 f9 0b 	call	0x17f2	; 0x17f2 <portadora>
 172:	34 9b       	sbis	0x06, 4	; 6
 174:	fc cf       	rjmp	.-8      	; 0x16e <main+0x44>
 176:	80 91 2a 01 	lds	r24, 0x012A	; 0x80012a <mod>
 17a:	90 91 2b 01 	lds	r25, 0x012B	; 0x80012b <mod+0x1>
 17e:	0e 94 44 03 	call	0x688	; 0x688 <lcd_mod>
 182:	80 91 1e 01 	lds	r24, 0x011E	; 0x80011e <Fin>
 186:	90 91 1f 01 	lds	r25, 0x011F	; 0x80011f <Fin+0x1>
 18a:	0e 94 a9 08 	call	0x1152	; 0x1152 <lcd_calc>
 18e:	ec e7       	ldi	r30, 0x7C	; 124
 190:	f0 e0       	ldi	r31, 0x00	; 0
 192:	80 81       	ld	r24, Z
 194:	8e 7f       	andi	r24, 0xFE	; 254
 196:	80 83       	st	Z, r24
 198:	34 9b       	sbis	0x06, 4	; 6
 19a:	dc cf       	rjmp	.-72     	; 0x154 <main+0x2a>
 19c:	80 91 2c 01 	lds	r24, 0x012C	; 0x80012c <adc_value>
 1a0:	90 91 2d 01 	lds	r25, 0x012D	; 0x80012d <adc_value+0x1>
 1a4:	96 95       	lsr	r25
 1a6:	87 95       	ror	r24
 1a8:	96 95       	lsr	r25
 1aa:	87 95       	ror	r24
 1ac:	80 93 35 01 	sts	0x0135, r24	; 0x800135 <input>
 1b0:	60 91 2e 01 	lds	r22, 0x012E	; 0x80012e <fp>
 1b4:	70 91 2f 01 	lds	r23, 0x012F	; 0x80012f <fp+0x1>
 1b8:	07 2e       	mov	r0, r23
 1ba:	00 0c       	add	r0, r0
 1bc:	88 0b       	sbc	r24, r24
 1be:	99 0b       	sbc	r25, r25
 1c0:	0e 94 11 09 	call	0x1222	; 0x1222 <__floatsisf>
 1c4:	20 91 14 01 	lds	r18, 0x0114	; 0x800114 <t>
 1c8:	30 91 15 01 	lds	r19, 0x0115	; 0x800115 <t+0x1>
 1cc:	40 91 16 01 	lds	r20, 0x0116	; 0x800116 <t+0x2>
 1d0:	50 91 17 01 	lds	r21, 0x0117	; 0x800117 <t+0x3>
 1d4:	0e 94 69 0c 	call	0x18d2	; 0x18d2 <__mulsf3>
 1d8:	60 93 0c 01 	sts	0x010C, r22	; 0x80010c <c>
 1dc:	70 93 0d 01 	sts	0x010D, r23	; 0x80010d <c+0x1>
 1e0:	80 93 0e 01 	sts	0x010E, r24	; 0x80010e <c+0x2>
 1e4:	90 93 0f 01 	sts	0x010F, r25	; 0x80010f <c+0x3>
 1e8:	80 91 2a 01 	lds	r24, 0x012A	; 0x80012a <mod>
 1ec:	90 91 2b 01 	lds	r25, 0x012B	; 0x80012b <mod+0x1>
 1f0:	03 97       	sbiw	r24, 0x03	; 3
 1f2:	9c f4       	brge	.+38     	; 0x21a <main+0xf0>
 1f4:	80 91 1e 01 	lds	r24, 0x011E	; 0x80011e <Fin>
 1f8:	90 91 1f 01 	lds	r25, 0x011F	; 0x80011f <Fin+0x1>
 1fc:	01 97       	sbiw	r24, 0x01	; 1
 1fe:	0a 97       	sbiw	r24, 0x0a	; 10
 200:	28 f0       	brcs	.+10     	; 0x20c <main+0xe2>
 202:	10 92 1d 01 	sts	0x011D, r1	; 0x80011d <verifica_freq+0x1>
 206:	10 92 1c 01 	sts	0x011C, r1	; 0x80011c <verifica_freq>
 20a:	1a c0       	rjmp	.+52     	; 0x240 <main+0x116>
 20c:	81 e0       	ldi	r24, 0x01	; 1
 20e:	90 e0       	ldi	r25, 0x00	; 0
 210:	90 93 1d 01 	sts	0x011D, r25	; 0x80011d <verifica_freq+0x1>
 214:	80 93 1c 01 	sts	0x011C, r24	; 0x80011c <verifica_freq>
 218:	13 c0       	rjmp	.+38     	; 0x240 <main+0x116>
 21a:	80 91 1e 01 	lds	r24, 0x011E	; 0x80011e <Fin>
 21e:	90 91 1f 01 	lds	r25, 0x011F	; 0x80011f <Fin+0x1>
 222:	08 97       	sbiw	r24, 0x08	; 8
 224:	89 34       	cpi	r24, 0x49	; 73
 226:	91 05       	cpc	r25, r1
 228:	28 f0       	brcs	.+10     	; 0x234 <main+0x10a>
 22a:	10 92 1d 01 	sts	0x011D, r1	; 0x80011d <verifica_freq+0x1>
 22e:	10 92 1c 01 	sts	0x011C, r1	; 0x80011c <verifica_freq>
 232:	06 c0       	rjmp	.+12     	; 0x240 <main+0x116>
 234:	81 e0       	ldi	r24, 0x01	; 1
 236:	90 e0       	ldi	r25, 0x00	; 0
 238:	90 93 1d 01 	sts	0x011D, r25	; 0x80011d <verifica_freq+0x1>
 23c:	80 93 1c 01 	sts	0x011C, r24	; 0x80011c <verifica_freq>
 240:	80 91 1c 01 	lds	r24, 0x011C	; 0x80011c <verifica_freq>
 244:	90 91 1d 01 	lds	r25, 0x011D	; 0x80011d <verifica_freq+0x1>
 248:	89 2b       	or	r24, r25
 24a:	69 f4       	brne	.+26     	; 0x266 <main+0x13c>
 24c:	80 91 1e 01 	lds	r24, 0x011E	; 0x80011e <Fin>
 250:	90 91 1f 01 	lds	r25, 0x011F	; 0x80011f <Fin+0x1>
 254:	0e 94 a9 08 	call	0x1152	; 0x1152 <lcd_calc>
 258:	85 b1       	in	r24, 0x05	; 5
 25a:	8f 7b       	andi	r24, 0xBF	; 191
 25c:	85 b9       	out	0x05, r24	; 5
 25e:	85 b1       	in	r24, 0x05	; 5
 260:	80 68       	ori	r24, 0x80	; 128
 262:	85 b9       	out	0x05, r24	; 5
 264:	ee c1       	rjmp	.+988    	; 0x642 <__EEPROM_REGION_LENGTH__+0x242>
 266:	85 b1       	in	r24, 0x05	; 5
 268:	8f 77       	andi	r24, 0x7F	; 127
 26a:	85 b9       	out	0x05, r24	; 5
 26c:	85 b1       	in	r24, 0x05	; 5
 26e:	80 64       	ori	r24, 0x40	; 64
 270:	85 b9       	out	0x05, r24	; 5
 272:	c0 91 2a 01 	lds	r28, 0x012A	; 0x80012a <mod>
 276:	d0 91 2b 01 	lds	r29, 0x012B	; 0x80012b <mod+0x1>
 27a:	c1 30       	cpi	r28, 0x01	; 1
 27c:	d1 05       	cpc	r29, r1
 27e:	09 f0       	breq	.+2      	; 0x282 <main+0x158>
 280:	4a c0       	rjmp	.+148    	; 0x316 <main+0x1ec>
 282:	60 91 35 01 	lds	r22, 0x0135	; 0x800135 <input>
 286:	66 95       	lsr	r22
 288:	e6 2e       	mov	r14, r22
 28a:	f1 2c       	mov	r15, r1
 28c:	60 91 10 01 	lds	r22, 0x0110	; 0x800110 <pi>
 290:	70 91 11 01 	lds	r23, 0x0111	; 0x800111 <pi+0x1>
 294:	80 91 12 01 	lds	r24, 0x0112	; 0x800112 <pi+0x2>
 298:	90 91 13 01 	lds	r25, 0x0113	; 0x800113 <pi+0x3>
 29c:	9b 01       	movw	r18, r22
 29e:	ac 01       	movw	r20, r24
 2a0:	0e 94 28 0c 	call	0x1850	; 0x1850 <__addsf3>
 2a4:	4b 01       	movw	r8, r22
 2a6:	5c 01       	movw	r10, r24
 2a8:	60 91 2e 01 	lds	r22, 0x012E	; 0x80012e <fp>
 2ac:	70 91 2f 01 	lds	r23, 0x012F	; 0x80012f <fp+0x1>
 2b0:	07 2e       	mov	r0, r23
 2b2:	00 0c       	add	r0, r0
 2b4:	88 0b       	sbc	r24, r24
 2b6:	99 0b       	sbc	r25, r25
 2b8:	0e 94 11 09 	call	0x1222	; 0x1222 <__floatsisf>
 2bc:	a5 01       	movw	r20, r10
 2be:	94 01       	movw	r18, r8
 2c0:	0e 94 69 0c 	call	0x18d2	; 0x18d2 <__mulsf3>
 2c4:	20 91 14 01 	lds	r18, 0x0114	; 0x800114 <t>
 2c8:	30 91 15 01 	lds	r19, 0x0115	; 0x800115 <t+0x1>
 2cc:	40 91 16 01 	lds	r20, 0x0116	; 0x800116 <t+0x2>
 2d0:	50 91 17 01 	lds	r21, 0x0117	; 0x800117 <t+0x3>
 2d4:	0e 94 69 0c 	call	0x18d2	; 0x18d2 <__mulsf3>
 2d8:	0e 94 5b 0c 	call	0x18b6	; 0x18b6 <cos>
 2dc:	4b 01       	movw	r8, r22
 2de:	5c 01       	movw	r10, r24
 2e0:	b7 01       	movw	r22, r14
 2e2:	ff 0c       	add	r15, r15
 2e4:	88 0b       	sbc	r24, r24
 2e6:	99 0b       	sbc	r25, r25
 2e8:	0e 94 11 09 	call	0x1222	; 0x1222 <__floatsisf>
 2ec:	a5 01       	movw	r20, r10
 2ee:	94 01       	movw	r18, r8
 2f0:	0e 94 69 0c 	call	0x18d2	; 0x18d2 <__mulsf3>
 2f4:	6b 01       	movw	r12, r22
 2f6:	7c 01       	movw	r14, r24
 2f8:	60 91 33 01 	lds	r22, 0x0133	; 0x800133 <offset>
 2fc:	70 e0       	ldi	r23, 0x00	; 0
 2fe:	80 e0       	ldi	r24, 0x00	; 0
 300:	90 e0       	ldi	r25, 0x00	; 0
 302:	0e 94 11 09 	call	0x1222	; 0x1222 <__floatsisf>
 306:	a7 01       	movw	r20, r14
 308:	96 01       	movw	r18, r12
 30a:	0e 94 28 0c 	call	0x1850	; 0x1850 <__addsf3>
 30e:	0e 94 79 0a 	call	0x14f2	; 0x14f2 <__fixunssfsi>
 312:	60 93 34 01 	sts	0x0134, r22	; 0x800134 <output>
 316:	c2 30       	cpi	r28, 0x02	; 2
 318:	d1 05       	cpc	r29, r1
 31a:	09 f0       	breq	.+2      	; 0x31e <main+0x1f4>
 31c:	57 c0       	rjmp	.+174    	; 0x3cc <main+0x2a2>
 31e:	60 91 10 01 	lds	r22, 0x0110	; 0x800110 <pi>
 322:	70 91 11 01 	lds	r23, 0x0111	; 0x800111 <pi+0x1>
 326:	80 91 12 01 	lds	r24, 0x0112	; 0x800112 <pi+0x2>
 32a:	90 91 13 01 	lds	r25, 0x0113	; 0x800113 <pi+0x3>
 32e:	9b 01       	movw	r18, r22
 330:	ac 01       	movw	r20, r24
 332:	0e 94 28 0c 	call	0x1850	; 0x1850 <__addsf3>
 336:	20 91 14 01 	lds	r18, 0x0114	; 0x800114 <t>
 33a:	30 91 15 01 	lds	r19, 0x0115	; 0x800115 <t+0x1>
 33e:	40 91 16 01 	lds	r20, 0x0116	; 0x800116 <t+0x2>
 342:	50 91 17 01 	lds	r21, 0x0117	; 0x800117 <t+0x3>
 346:	0e 94 69 0c 	call	0x18d2	; 0x18d2 <__mulsf3>
 34a:	6b 01       	movw	r12, r22
 34c:	7c 01       	movw	r14, r24
 34e:	90 91 35 01 	lds	r25, 0x0135	; 0x800135 <input>
 352:	96 95       	lsr	r25
 354:	20 91 2e 01 	lds	r18, 0x012E	; 0x80012e <fp>
 358:	30 91 2f 01 	lds	r19, 0x012F	; 0x80012f <fp+0x1>
 35c:	92 9f       	mul	r25, r18
 35e:	a0 01       	movw	r20, r0
 360:	93 9f       	mul	r25, r19
 362:	50 0d       	add	r21, r0
 364:	11 24       	eor	r1, r1
 366:	ca 01       	movw	r24, r20
 368:	6f ef       	ldi	r22, 0xFF	; 255
 36a:	70 e0       	ldi	r23, 0x00	; 0
 36c:	0e 94 94 0b 	call	0x1728	; 0x1728 <__divmodhi4>
 370:	62 0f       	add	r22, r18
 372:	73 1f       	adc	r23, r19
 374:	07 2e       	mov	r0, r23
 376:	00 0c       	add	r0, r0
 378:	88 0b       	sbc	r24, r24
 37a:	99 0b       	sbc	r25, r25
 37c:	0e 94 11 09 	call	0x1222	; 0x1222 <__floatsisf>
 380:	9b 01       	movw	r18, r22
 382:	ac 01       	movw	r20, r24
 384:	c7 01       	movw	r24, r14
 386:	b6 01       	movw	r22, r12
 388:	0e 94 69 0c 	call	0x18d2	; 0x18d2 <__mulsf3>
 38c:	0e 94 5b 0c 	call	0x18b6	; 0x18b6 <cos>
 390:	6b 01       	movw	r12, r22
 392:	7c 01       	movw	r14, r24
 394:	60 91 32 01 	lds	r22, 0x0132	; 0x800132 <Ap>
 398:	70 e0       	ldi	r23, 0x00	; 0
 39a:	80 e0       	ldi	r24, 0x00	; 0
 39c:	90 e0       	ldi	r25, 0x00	; 0
 39e:	0e 94 11 09 	call	0x1222	; 0x1222 <__floatsisf>
 3a2:	a7 01       	movw	r20, r14
 3a4:	96 01       	movw	r18, r12
 3a6:	0e 94 69 0c 	call	0x18d2	; 0x18d2 <__mulsf3>
 3aa:	6b 01       	movw	r12, r22
 3ac:	7c 01       	movw	r14, r24
 3ae:	60 91 33 01 	lds	r22, 0x0133	; 0x800133 <offset>
 3b2:	70 e0       	ldi	r23, 0x00	; 0
 3b4:	80 e0       	ldi	r24, 0x00	; 0
 3b6:	90 e0       	ldi	r25, 0x00	; 0
 3b8:	0e 94 11 09 	call	0x1222	; 0x1222 <__floatsisf>
 3bc:	a7 01       	movw	r20, r14
 3be:	96 01       	movw	r18, r12
 3c0:	0e 94 28 0c 	call	0x1850	; 0x1850 <__addsf3>
 3c4:	0e 94 79 0a 	call	0x14f2	; 0x14f2 <__fixunssfsi>
 3c8:	60 93 34 01 	sts	0x0134, r22	; 0x800134 <output>
 3cc:	c3 30       	cpi	r28, 0x03	; 3
 3ce:	d1 05       	cpc	r29, r1
 3d0:	09 f0       	breq	.+2      	; 0x3d4 <main+0x2aa>
 3d2:	51 c0       	rjmp	.+162    	; 0x476 <__EEPROM_REGION_LENGTH__+0x76>
 3d4:	60 91 35 01 	lds	r22, 0x0135	; 0x800135 <input>
 3d8:	6a 30       	cpi	r22, 0x0A	; 10
 3da:	28 f4       	brcc	.+10     	; 0x3e6 <main+0x2bc>
 3dc:	80 91 33 01 	lds	r24, 0x0133	; 0x800133 <offset>
 3e0:	80 93 34 01 	sts	0x0134, r24	; 0x800134 <output>
 3e4:	48 c0       	rjmp	.+144    	; 0x476 <__EEPROM_REGION_LENGTH__+0x76>
 3e6:	66 95       	lsr	r22
 3e8:	e6 2e       	mov	r14, r22
 3ea:	f1 2c       	mov	r15, r1
 3ec:	60 91 10 01 	lds	r22, 0x0110	; 0x800110 <pi>
 3f0:	70 91 11 01 	lds	r23, 0x0111	; 0x800111 <pi+0x1>
 3f4:	80 91 12 01 	lds	r24, 0x0112	; 0x800112 <pi+0x2>
 3f8:	90 91 13 01 	lds	r25, 0x0113	; 0x800113 <pi+0x3>
 3fc:	9b 01       	movw	r18, r22
 3fe:	ac 01       	movw	r20, r24
 400:	0e 94 28 0c 	call	0x1850	; 0x1850 <__addsf3>
 404:	4b 01       	movw	r8, r22
 406:	5c 01       	movw	r10, r24
 408:	60 91 2e 01 	lds	r22, 0x012E	; 0x80012e <fp>
 40c:	70 91 2f 01 	lds	r23, 0x012F	; 0x80012f <fp+0x1>
 410:	07 2e       	mov	r0, r23
 412:	00 0c       	add	r0, r0
 414:	88 0b       	sbc	r24, r24
 416:	99 0b       	sbc	r25, r25
 418:	0e 94 11 09 	call	0x1222	; 0x1222 <__floatsisf>
 41c:	a5 01       	movw	r20, r10
 41e:	94 01       	movw	r18, r8
 420:	0e 94 69 0c 	call	0x18d2	; 0x18d2 <__mulsf3>
 424:	20 91 14 01 	lds	r18, 0x0114	; 0x800114 <t>
 428:	30 91 15 01 	lds	r19, 0x0115	; 0x800115 <t+0x1>
 42c:	40 91 16 01 	lds	r20, 0x0116	; 0x800116 <t+0x2>
 430:	50 91 17 01 	lds	r21, 0x0117	; 0x800117 <t+0x3>
 434:	0e 94 69 0c 	call	0x18d2	; 0x18d2 <__mulsf3>
 438:	0e 94 5b 0c 	call	0x18b6	; 0x18b6 <cos>
 43c:	4b 01       	movw	r8, r22
 43e:	5c 01       	movw	r10, r24
 440:	b7 01       	movw	r22, r14
 442:	ff 0c       	add	r15, r15
 444:	88 0b       	sbc	r24, r24
 446:	99 0b       	sbc	r25, r25
 448:	0e 94 11 09 	call	0x1222	; 0x1222 <__floatsisf>
 44c:	a5 01       	movw	r20, r10
 44e:	94 01       	movw	r18, r8
 450:	0e 94 69 0c 	call	0x18d2	; 0x18d2 <__mulsf3>
 454:	6b 01       	movw	r12, r22
 456:	7c 01       	movw	r14, r24
 458:	60 91 33 01 	lds	r22, 0x0133	; 0x800133 <offset>
 45c:	70 e0       	ldi	r23, 0x00	; 0
 45e:	80 e0       	ldi	r24, 0x00	; 0
 460:	90 e0       	ldi	r25, 0x00	; 0
 462:	0e 94 11 09 	call	0x1222	; 0x1222 <__floatsisf>
 466:	a7 01       	movw	r20, r14
 468:	96 01       	movw	r18, r12
 46a:	0e 94 28 0c 	call	0x1850	; 0x1850 <__addsf3>
 46e:	0e 94 79 0a 	call	0x14f2	; 0x14f2 <__fixunssfsi>
 472:	60 93 34 01 	sts	0x0134, r22	; 0x800134 <output>
 476:	24 97       	sbiw	r28, 0x04	; 4
 478:	09 f0       	breq	.+2      	; 0x47c <__EEPROM_REGION_LENGTH__+0x7c>
 47a:	94 c0       	rjmp	.+296    	; 0x5a4 <__EEPROM_REGION_LENGTH__+0x1a4>
 47c:	80 91 35 01 	lds	r24, 0x0135	; 0x800135 <input>
 480:	8a 30       	cpi	r24, 0x0A	; 10
 482:	08 f0       	brcs	.+2      	; 0x486 <__EEPROM_REGION_LENGTH__+0x86>
 484:	47 c0       	rjmp	.+142    	; 0x514 <__EEPROM_REGION_LENGTH__+0x114>
 486:	60 91 10 01 	lds	r22, 0x0110	; 0x800110 <pi>
 48a:	70 91 11 01 	lds	r23, 0x0111	; 0x800111 <pi+0x1>
 48e:	80 91 12 01 	lds	r24, 0x0112	; 0x800112 <pi+0x2>
 492:	90 91 13 01 	lds	r25, 0x0113	; 0x800113 <pi+0x3>
 496:	9b 01       	movw	r18, r22
 498:	ac 01       	movw	r20, r24
 49a:	0e 94 28 0c 	call	0x1850	; 0x1850 <__addsf3>
 49e:	6b 01       	movw	r12, r22
 4a0:	7c 01       	movw	r14, r24
 4a2:	60 91 2e 01 	lds	r22, 0x012E	; 0x80012e <fp>
 4a6:	70 91 2f 01 	lds	r23, 0x012F	; 0x80012f <fp+0x1>
 4aa:	07 2e       	mov	r0, r23
 4ac:	00 0c       	add	r0, r0
 4ae:	88 0b       	sbc	r24, r24
 4b0:	99 0b       	sbc	r25, r25
 4b2:	0e 94 11 09 	call	0x1222	; 0x1222 <__floatsisf>
 4b6:	a7 01       	movw	r20, r14
 4b8:	96 01       	movw	r18, r12
 4ba:	0e 94 69 0c 	call	0x18d2	; 0x18d2 <__mulsf3>
 4be:	20 91 14 01 	lds	r18, 0x0114	; 0x800114 <t>
 4c2:	30 91 15 01 	lds	r19, 0x0115	; 0x800115 <t+0x1>
 4c6:	40 91 16 01 	lds	r20, 0x0116	; 0x800116 <t+0x2>
 4ca:	50 91 17 01 	lds	r21, 0x0117	; 0x800117 <t+0x3>
 4ce:	0e 94 69 0c 	call	0x18d2	; 0x18d2 <__mulsf3>
 4d2:	0e 94 5b 0c 	call	0x18b6	; 0x18b6 <cos>
 4d6:	6b 01       	movw	r12, r22
 4d8:	7c 01       	movw	r14, r24
 4da:	60 91 32 01 	lds	r22, 0x0132	; 0x800132 <Ap>
 4de:	70 e0       	ldi	r23, 0x00	; 0
 4e0:	80 e0       	ldi	r24, 0x00	; 0
 4e2:	90 e0       	ldi	r25, 0x00	; 0
 4e4:	0e 94 11 09 	call	0x1222	; 0x1222 <__floatsisf>
 4e8:	a7 01       	movw	r20, r14
 4ea:	96 01       	movw	r18, r12
 4ec:	0e 94 69 0c 	call	0x18d2	; 0x18d2 <__mulsf3>
 4f0:	6b 01       	movw	r12, r22
 4f2:	7c 01       	movw	r14, r24
 4f4:	60 91 33 01 	lds	r22, 0x0133	; 0x800133 <offset>
 4f8:	70 e0       	ldi	r23, 0x00	; 0
 4fa:	80 e0       	ldi	r24, 0x00	; 0
 4fc:	90 e0       	ldi	r25, 0x00	; 0
 4fe:	0e 94 11 09 	call	0x1222	; 0x1222 <__floatsisf>
 502:	a7 01       	movw	r20, r14
 504:	96 01       	movw	r18, r12
 506:	0e 94 28 0c 	call	0x1850	; 0x1850 <__addsf3>
 50a:	0e 94 79 0a 	call	0x14f2	; 0x14f2 <__fixunssfsi>
 50e:	60 93 34 01 	sts	0x0134, r22	; 0x800134 <output>
 512:	48 c0       	rjmp	.+144    	; 0x5a4 <__EEPROM_REGION_LENGTH__+0x1a4>
 514:	20 e0       	ldi	r18, 0x00	; 0
 516:	30 e0       	ldi	r19, 0x00	; 0
 518:	40 e8       	ldi	r20, 0x80	; 128
 51a:	50 e4       	ldi	r21, 0x40	; 64
 51c:	60 91 10 01 	lds	r22, 0x0110	; 0x800110 <pi>
 520:	70 91 11 01 	lds	r23, 0x0111	; 0x800111 <pi+0x1>
 524:	80 91 12 01 	lds	r24, 0x0112	; 0x800112 <pi+0x2>
 528:	90 91 13 01 	lds	r25, 0x0113	; 0x800113 <pi+0x3>
 52c:	0e 94 69 0c 	call	0x18d2	; 0x18d2 <__mulsf3>
 530:	6b 01       	movw	r12, r22
 532:	7c 01       	movw	r14, r24
 534:	60 91 2e 01 	lds	r22, 0x012E	; 0x80012e <fp>
 538:	70 91 2f 01 	lds	r23, 0x012F	; 0x80012f <fp+0x1>
 53c:	07 2e       	mov	r0, r23
 53e:	00 0c       	add	r0, r0
 540:	88 0b       	sbc	r24, r24
 542:	99 0b       	sbc	r25, r25
 544:	0e 94 11 09 	call	0x1222	; 0x1222 <__floatsisf>
 548:	a7 01       	movw	r20, r14
 54a:	96 01       	movw	r18, r12
 54c:	0e 94 69 0c 	call	0x18d2	; 0x18d2 <__mulsf3>
 550:	20 91 14 01 	lds	r18, 0x0114	; 0x800114 <t>
 554:	30 91 15 01 	lds	r19, 0x0115	; 0x800115 <t+0x1>
 558:	40 91 16 01 	lds	r20, 0x0116	; 0x800116 <t+0x2>
 55c:	50 91 17 01 	lds	r21, 0x0117	; 0x800117 <t+0x3>
 560:	0e 94 69 0c 	call	0x18d2	; 0x18d2 <__mulsf3>
 564:	0e 94 5b 0c 	call	0x18b6	; 0x18b6 <cos>
 568:	6b 01       	movw	r12, r22
 56a:	7c 01       	movw	r14, r24
 56c:	60 91 32 01 	lds	r22, 0x0132	; 0x800132 <Ap>
 570:	70 e0       	ldi	r23, 0x00	; 0
 572:	80 e0       	ldi	r24, 0x00	; 0
 574:	90 e0       	ldi	r25, 0x00	; 0
 576:	0e 94 11 09 	call	0x1222	; 0x1222 <__floatsisf>
 57a:	a7 01       	movw	r20, r14
 57c:	96 01       	movw	r18, r12
 57e:	0e 94 69 0c 	call	0x18d2	; 0x18d2 <__mulsf3>
 582:	6b 01       	movw	r12, r22
 584:	7c 01       	movw	r14, r24
 586:	60 91 33 01 	lds	r22, 0x0133	; 0x800133 <offset>
 58a:	70 e0       	ldi	r23, 0x00	; 0
 58c:	80 e0       	ldi	r24, 0x00	; 0
 58e:	90 e0       	ldi	r25, 0x00	; 0
 590:	0e 94 11 09 	call	0x1222	; 0x1222 <__floatsisf>
 594:	a7 01       	movw	r20, r14
 596:	96 01       	movw	r18, r12
 598:	0e 94 28 0c 	call	0x1850	; 0x1850 <__addsf3>
 59c:	0e 94 79 0a 	call	0x14f2	; 0x14f2 <__fixunssfsi>
 5a0:	60 93 34 01 	sts	0x0134, r22	; 0x800134 <output>
 5a4:	80 91 34 01 	lds	r24, 0x0134	; 0x800134 <output>
 5a8:	8b b9       	out	0x0b, r24	; 11
 5aa:	20 91 18 01 	lds	r18, 0x0118	; 0x800118 <Ts>
 5ae:	30 91 19 01 	lds	r19, 0x0119	; 0x800119 <Ts+0x1>
 5b2:	40 91 1a 01 	lds	r20, 0x011A	; 0x80011a <Ts+0x2>
 5b6:	50 91 1b 01 	lds	r21, 0x011B	; 0x80011b <Ts+0x3>
 5ba:	60 91 14 01 	lds	r22, 0x0114	; 0x800114 <t>
 5be:	70 91 15 01 	lds	r23, 0x0115	; 0x800115 <t+0x1>
 5c2:	80 91 16 01 	lds	r24, 0x0116	; 0x800116 <t+0x2>
 5c6:	90 91 17 01 	lds	r25, 0x0117	; 0x800117 <t+0x3>
 5ca:	0e 94 28 0c 	call	0x1850	; 0x1850 <__addsf3>
 5ce:	60 93 14 01 	sts	0x0114, r22	; 0x800114 <t>
 5d2:	70 93 15 01 	sts	0x0115, r23	; 0x800115 <t+0x1>
 5d6:	80 93 16 01 	sts	0x0116, r24	; 0x800116 <t+0x2>
 5da:	90 93 17 01 	sts	0x0117, r25	; 0x800117 <t+0x3>
 5de:	60 91 0c 01 	lds	r22, 0x010C	; 0x80010c <c>
 5e2:	70 91 0d 01 	lds	r23, 0x010D	; 0x80010d <c+0x1>
 5e6:	80 91 0e 01 	lds	r24, 0x010E	; 0x80010e <c+0x2>
 5ea:	90 91 0f 01 	lds	r25, 0x010F	; 0x80010f <c+0x3>
 5ee:	20 e0       	ldi	r18, 0x00	; 0
 5f0:	30 e0       	ldi	r19, 0x00	; 0
 5f2:	40 e8       	ldi	r20, 0x80	; 128
 5f4:	5f e3       	ldi	r21, 0x3F	; 63
 5f6:	0e 94 60 0c 	call	0x18c0	; 0x18c0 <__gesf2>
 5fa:	88 23       	and	r24, r24
 5fc:	44 f0       	brlt	.+16     	; 0x60e <__EEPROM_REGION_LENGTH__+0x20e>
 5fe:	10 92 14 01 	sts	0x0114, r1	; 0x800114 <t>
 602:	10 92 15 01 	sts	0x0115, r1	; 0x800115 <t+0x1>
 606:	10 92 16 01 	sts	0x0116, r1	; 0x800116 <t+0x2>
 60a:	10 92 17 01 	sts	0x0117, r1	; 0x800117 <t+0x3>
 60e:	80 91 2a 01 	lds	r24, 0x012A	; 0x80012a <mod>
 612:	90 91 2b 01 	lds	r25, 0x012B	; 0x80012b <mod+0x1>
 616:	03 97       	sbiw	r24, 0x03	; 3
 618:	34 f4       	brge	.+12     	; 0x626 <__EEPROM_REGION_LENGTH__+0x226>
 61a:	80 91 1e 01 	lds	r24, 0x011E	; 0x80011e <Fin>
 61e:	90 91 1f 01 	lds	r25, 0x011F	; 0x80011f <Fin+0x1>
 622:	0e 94 69 06 	call	0xcd2	; 0xcd2 <lcd_R_analog>
 626:	80 91 2a 01 	lds	r24, 0x012A	; 0x80012a <mod>
 62a:	90 91 2b 01 	lds	r25, 0x012B	; 0x80012b <mod+0x1>
 62e:	03 97       	sbiw	r24, 0x03	; 3
 630:	44 f0       	brlt	.+16     	; 0x642 <__EEPROM_REGION_LENGTH__+0x242>
 632:	60 91 1e 01 	lds	r22, 0x011E	; 0x80011e <Fin>
 636:	70 91 1f 01 	lds	r23, 0x011F	; 0x80011f <Fin+0x1>
 63a:	80 e0       	ldi	r24, 0x00	; 0
 63c:	91 e0       	ldi	r25, 0x01	; 1
 63e:	0e 94 f7 06 	call	0xdee	; 0xdee <lcd_R_digit>
 642:	32 9b       	sbis	0x06, 2	; 6
 644:	ab cd       	rjmp	.-1194   	; 0x19c <main+0x72>
 646:	ec e7       	ldi	r30, 0x7C	; 124
 648:	f0 e0       	ldi	r31, 0x00	; 0
 64a:	80 81       	ld	r24, Z
 64c:	81 60       	ori	r24, 0x01	; 1
 64e:	80 83       	st	Z, r24
 650:	02 c0       	rjmp	.+4      	; 0x656 <__EEPROM_REGION_LENGTH__+0x256>
 652:	0e 94 20 0c 	call	0x1840	; 0x1840 <modulacao>
 656:	33 9b       	sbis	0x06, 3	; 6
 658:	fc cf       	rjmp	.-8      	; 0x652 <__EEPROM_REGION_LENGTH__+0x252>
 65a:	02 c0       	rjmp	.+4      	; 0x660 <__EEPROM_REGION_LENGTH__+0x260>
 65c:	0e 94 f9 0b 	call	0x17f2	; 0x17f2 <portadora>
 660:	34 9b       	sbis	0x06, 4	; 6
 662:	fc cf       	rjmp	.-8      	; 0x65c <__EEPROM_REGION_LENGTH__+0x25c>
 664:	80 91 2a 01 	lds	r24, 0x012A	; 0x80012a <mod>
 668:	90 91 2b 01 	lds	r25, 0x012B	; 0x80012b <mod+0x1>
 66c:	0e 94 44 03 	call	0x688	; 0x688 <lcd_mod>
 670:	80 91 1e 01 	lds	r24, 0x011E	; 0x80011e <Fin>
 674:	90 91 1f 01 	lds	r25, 0x011F	; 0x80011f <Fin+0x1>
 678:	0e 94 a9 08 	call	0x1152	; 0x1152 <lcd_calc>
 67c:	ec e7       	ldi	r30, 0x7C	; 124
 67e:	f0 e0       	ldi	r31, 0x00	; 0
 680:	80 81       	ld	r24, Z
 682:	8e 7f       	andi	r24, 0xFE	; 254
 684:	80 83       	st	Z, r24
 686:	8a cd       	rjmp	.-1260   	; 0x19c <main+0x72>

Disassembly of section .text.avrlibc.fplib:

0000184e <__subsf3>:
    184e:	50 58       	subi	r21, 0x80	; 128

00001850 <__addsf3>:
    1850:	bb 27       	eor	r27, r27
    1852:	aa 27       	eor	r26, r26
    1854:	0e 94 42 08 	call	0x1084	; 0x1084 <__addsf3x>
    1858:	0c 94 cd 0b 	jmp	0x179a	; 0x179a <__fp_round>

Disassembly of section .text.avrlibc.fplib:

00001084 <__addsf3x>:
    1084:	11 c0       	rjmp	.+34     	; 0x10a8 <__addsf3x+0x24>
    1086:	0e 94 35 0c 	call	0x186a	; 0x186a <__fp_pscA>
    108a:	38 f0       	brcs	.+14     	; 0x109a <__addsf3x+0x16>
    108c:	0e 94 3c 0c 	call	0x1878	; 0x1878 <__fp_pscB>
    1090:	20 f0       	brcs	.+8      	; 0x109a <__addsf3x+0x16>
    1092:	39 f4       	brne	.+14     	; 0x10a2 <__addsf3x+0x1e>
    1094:	9f 3f       	cpi	r25, 0xFF	; 255
    1096:	19 f4       	brne	.+6      	; 0x109e <__addsf3x+0x1a>
    1098:	26 f4       	brtc	.+8      	; 0x10a2 <__addsf3x+0x1e>
    109a:	0c 94 6d 0c 	jmp	0x18da	; 0x18da <__fp_nan>
    109e:	0e f4       	brtc	.+2      	; 0x10a2 <__addsf3x+0x1e>
    10a0:	e0 95       	com	r30
    10a2:	e7 fb       	bst	r30, 7
    10a4:	0c 94 4a 0c 	jmp	0x1894	; 0x1894 <__fp_inf>
    10a8:	e9 2f       	mov	r30, r25
    10aa:	0e 94 4a 0b 	call	0x1694	; 0x1694 <__fp_split3>
    10ae:	58 f3       	brcs	.-42     	; 0x1086 <__addsf3x+0x2>
    10b0:	ba 17       	cp	r27, r26
    10b2:	62 07       	cpc	r22, r18
    10b4:	73 07       	cpc	r23, r19
    10b6:	84 07       	cpc	r24, r20
    10b8:	95 07       	cpc	r25, r21
    10ba:	20 f0       	brcs	.+8      	; 0x10c4 <__addsf3x+0x40>
    10bc:	79 f4       	brne	.+30     	; 0x10dc <__addsf3x+0x58>
    10be:	a6 f5       	brtc	.+104    	; 0x1128 <__addsf3x+0xa4>
    10c0:	0c 94 43 0c 	jmp	0x1886	; 0x1886 <__fp_zero>
    10c4:	0e f4       	brtc	.+2      	; 0x10c8 <__addsf3x+0x44>
    10c6:	e0 95       	com	r30
    10c8:	0b 2e       	mov	r0, r27
    10ca:	ba 2f       	mov	r27, r26
    10cc:	a0 2d       	mov	r26, r0
    10ce:	0b 01       	movw	r0, r22
    10d0:	b9 01       	movw	r22, r18
    10d2:	90 01       	movw	r18, r0
    10d4:	0c 01       	movw	r0, r24
    10d6:	ca 01       	movw	r24, r20
    10d8:	a0 01       	movw	r20, r0
    10da:	11 24       	eor	r1, r1
    10dc:	ff 27       	eor	r31, r31
    10de:	59 1b       	sub	r21, r25
    10e0:	99 f0       	breq	.+38     	; 0x1108 <__addsf3x+0x84>
    10e2:	59 3f       	cpi	r21, 0xF9	; 249
    10e4:	50 f4       	brcc	.+20     	; 0x10fa <__addsf3x+0x76>
    10e6:	50 3e       	cpi	r21, 0xE0	; 224
    10e8:	68 f1       	brcs	.+90     	; 0x1144 <__addsf3x+0xc0>
    10ea:	1a 16       	cp	r1, r26
    10ec:	f0 40       	sbci	r31, 0x00	; 0
    10ee:	a2 2f       	mov	r26, r18
    10f0:	23 2f       	mov	r18, r19
    10f2:	34 2f       	mov	r19, r20
    10f4:	44 27       	eor	r20, r20
    10f6:	58 5f       	subi	r21, 0xF8	; 248
    10f8:	f3 cf       	rjmp	.-26     	; 0x10e0 <__addsf3x+0x5c>
    10fa:	46 95       	lsr	r20
    10fc:	37 95       	ror	r19
    10fe:	27 95       	ror	r18
    1100:	a7 95       	ror	r26
    1102:	f0 40       	sbci	r31, 0x00	; 0
    1104:	53 95       	inc	r21
    1106:	c9 f7       	brne	.-14     	; 0x10fa <__addsf3x+0x76>
    1108:	7e f4       	brtc	.+30     	; 0x1128 <__addsf3x+0xa4>
    110a:	1f 16       	cp	r1, r31
    110c:	ba 0b       	sbc	r27, r26
    110e:	62 0b       	sbc	r22, r18
    1110:	73 0b       	sbc	r23, r19
    1112:	84 0b       	sbc	r24, r20
    1114:	ba f0       	brmi	.+46     	; 0x1144 <__addsf3x+0xc0>
    1116:	91 50       	subi	r25, 0x01	; 1
    1118:	a1 f0       	breq	.+40     	; 0x1142 <__addsf3x+0xbe>
    111a:	ff 0f       	add	r31, r31
    111c:	bb 1f       	adc	r27, r27
    111e:	66 1f       	adc	r22, r22
    1120:	77 1f       	adc	r23, r23
    1122:	88 1f       	adc	r24, r24
    1124:	c2 f7       	brpl	.-16     	; 0x1116 <__addsf3x+0x92>
    1126:	0e c0       	rjmp	.+28     	; 0x1144 <__addsf3x+0xc0>
    1128:	ba 0f       	add	r27, r26
    112a:	62 1f       	adc	r22, r18
    112c:	73 1f       	adc	r23, r19
    112e:	84 1f       	adc	r24, r20
    1130:	48 f4       	brcc	.+18     	; 0x1144 <__addsf3x+0xc0>
    1132:	87 95       	ror	r24
    1134:	77 95       	ror	r23
    1136:	67 95       	ror	r22
    1138:	b7 95       	ror	r27
    113a:	f7 95       	ror	r31
    113c:	9e 3f       	cpi	r25, 0xFE	; 254
    113e:	08 f0       	brcs	.+2      	; 0x1142 <__addsf3x+0xbe>
    1140:	b0 cf       	rjmp	.-160    	; 0x10a2 <__addsf3x+0x1e>
    1142:	93 95       	inc	r25
    1144:	88 0f       	add	r24, r24
    1146:	08 f0       	brcs	.+2      	; 0x114a <__addsf3x+0xc6>
    1148:	99 27       	eor	r25, r25
    114a:	ee 0f       	add	r30, r30
    114c:	97 95       	ror	r25
    114e:	87 95       	ror	r24
    1150:	08 95       	ret

Disassembly of section .text.avrlibc.fplib:

000018ac <__cmpsf2>:
    18ac:	0e 94 26 0b 	call	0x164c	; 0x164c <__fp_cmp>
    18b0:	08 f4       	brcc	.+2      	; 0x18b4 <__cmpsf2+0x8>
    18b2:	81 e0       	ldi	r24, 0x01	; 1
    18b4:	08 95       	ret

Disassembly of section .text.avrlibc.fplib:

000018b6 <cos>:
    18b6:	0e 94 d4 0a 	call	0x15a8	; 0x15a8 <__fp_rempio2>
    18ba:	e3 95       	inc	r30
    18bc:	0c 94 6c 0b 	jmp	0x16d8	; 0x16d8 <__fp_sinus>

Disassembly of section .text.avrlibc.fplib:

000018ca <__divsf3>:
    18ca:	0e 94 69 07 	call	0xed2	; 0xed2 <__divsf3x>
    18ce:	0c 94 cd 0b 	jmp	0x179a	; 0x179a <__fp_round>

Disassembly of section .text.avrlibc.fplib:

00000ed2 <__divsf3x>:
 ed2:	10 c0       	rjmp	.+32     	; 0xef4 <__divsf3x+0x22>
 ed4:	0e 94 3c 0c 	call	0x1878	; 0x1878 <__fp_pscB>
 ed8:	58 f0       	brcs	.+22     	; 0xef0 <__divsf3x+0x1e>
 eda:	0e 94 35 0c 	call	0x186a	; 0x186a <__fp_pscA>
 ede:	40 f0       	brcs	.+16     	; 0xef0 <__divsf3x+0x1e>
 ee0:	29 f4       	brne	.+10     	; 0xeec <__divsf3x+0x1a>
 ee2:	5f 3f       	cpi	r21, 0xFF	; 255
 ee4:	29 f0       	breq	.+10     	; 0xef0 <__divsf3x+0x1e>
 ee6:	0c 94 4a 0c 	jmp	0x1894	; 0x1894 <__fp_inf>
 eea:	51 11       	cpse	r21, r1
 eec:	0c 94 44 0c 	jmp	0x1888	; 0x1888 <__fp_szero>
 ef0:	0c 94 6d 0c 	jmp	0x18da	; 0x18da <__fp_nan>
 ef4:	0e 94 4a 0b 	call	0x1694	; 0x1694 <__fp_split3>
 ef8:	68 f3       	brcs	.-38     	; 0xed4 <__divsf3x+0x2>

00000efa <__divsf3_pse>:
 efa:	99 23       	and	r25, r25
 efc:	b1 f3       	breq	.-20     	; 0xeea <__divsf3x+0x18>
 efe:	55 23       	and	r21, r21
 f00:	91 f3       	breq	.-28     	; 0xee6 <__divsf3x+0x14>
 f02:	95 1b       	sub	r25, r21
 f04:	55 0b       	sbc	r21, r21
 f06:	bb 27       	eor	r27, r27
 f08:	aa 27       	eor	r26, r26
 f0a:	62 17       	cp	r22, r18
 f0c:	73 07       	cpc	r23, r19
 f0e:	84 07       	cpc	r24, r20
 f10:	38 f0       	brcs	.+14     	; 0xf20 <__divsf3_pse+0x26>
 f12:	9f 5f       	subi	r25, 0xFF	; 255
 f14:	5f 4f       	sbci	r21, 0xFF	; 255
 f16:	22 0f       	add	r18, r18
 f18:	33 1f       	adc	r19, r19
 f1a:	44 1f       	adc	r20, r20
 f1c:	aa 1f       	adc	r26, r26
 f1e:	a9 f3       	breq	.-22     	; 0xf0a <__divsf3_pse+0x10>
 f20:	35 d0       	rcall	.+106    	; 0xf8c <__divsf3_pse+0x92>
 f22:	0e 2e       	mov	r0, r30
 f24:	3a f0       	brmi	.+14     	; 0xf34 <__divsf3_pse+0x3a>
 f26:	e0 e8       	ldi	r30, 0x80	; 128
 f28:	32 d0       	rcall	.+100    	; 0xf8e <__divsf3_pse+0x94>
 f2a:	91 50       	subi	r25, 0x01	; 1
 f2c:	50 40       	sbci	r21, 0x00	; 0
 f2e:	e6 95       	lsr	r30
 f30:	00 1c       	adc	r0, r0
 f32:	ca f7       	brpl	.-14     	; 0xf26 <__divsf3_pse+0x2c>
 f34:	2b d0       	rcall	.+86     	; 0xf8c <__divsf3_pse+0x92>
 f36:	fe 2f       	mov	r31, r30
 f38:	29 d0       	rcall	.+82     	; 0xf8c <__divsf3_pse+0x92>
 f3a:	66 0f       	add	r22, r22
 f3c:	77 1f       	adc	r23, r23
 f3e:	88 1f       	adc	r24, r24
 f40:	bb 1f       	adc	r27, r27
 f42:	26 17       	cp	r18, r22
 f44:	37 07       	cpc	r19, r23
 f46:	48 07       	cpc	r20, r24
 f48:	ab 07       	cpc	r26, r27
 f4a:	b0 e8       	ldi	r27, 0x80	; 128
 f4c:	09 f0       	breq	.+2      	; 0xf50 <__divsf3_pse+0x56>
 f4e:	bb 0b       	sbc	r27, r27
 f50:	80 2d       	mov	r24, r0
 f52:	bf 01       	movw	r22, r30
 f54:	ff 27       	eor	r31, r31
 f56:	93 58       	subi	r25, 0x83	; 131
 f58:	5f 4f       	sbci	r21, 0xFF	; 255
 f5a:	3a f0       	brmi	.+14     	; 0xf6a <__divsf3_pse+0x70>
 f5c:	9e 3f       	cpi	r25, 0xFE	; 254
 f5e:	51 05       	cpc	r21, r1
 f60:	78 f0       	brcs	.+30     	; 0xf80 <__divsf3_pse+0x86>
 f62:	0c 94 4a 0c 	jmp	0x1894	; 0x1894 <__fp_inf>
 f66:	0c 94 44 0c 	jmp	0x1888	; 0x1888 <__fp_szero>
 f6a:	5f 3f       	cpi	r21, 0xFF	; 255
 f6c:	e4 f3       	brlt	.-8      	; 0xf66 <__divsf3_pse+0x6c>
 f6e:	98 3e       	cpi	r25, 0xE8	; 232
 f70:	d4 f3       	brlt	.-12     	; 0xf66 <__divsf3_pse+0x6c>
 f72:	86 95       	lsr	r24
 f74:	77 95       	ror	r23
 f76:	67 95       	ror	r22
 f78:	b7 95       	ror	r27
 f7a:	f7 95       	ror	r31
 f7c:	9f 5f       	subi	r25, 0xFF	; 255
 f7e:	c9 f7       	brne	.-14     	; 0xf72 <__divsf3_pse+0x78>
 f80:	88 0f       	add	r24, r24
 f82:	91 1d       	adc	r25, r1
 f84:	96 95       	lsr	r25
 f86:	87 95       	ror	r24
 f88:	97 f9       	bld	r25, 7
 f8a:	08 95       	ret
 f8c:	e1 e0       	ldi	r30, 0x01	; 1
 f8e:	66 0f       	add	r22, r22
 f90:	77 1f       	adc	r23, r23
 f92:	88 1f       	adc	r24, r24
 f94:	bb 1f       	adc	r27, r27
 f96:	62 17       	cp	r22, r18
 f98:	73 07       	cpc	r23, r19
 f9a:	84 07       	cpc	r24, r20
 f9c:	ba 07       	cpc	r27, r26
 f9e:	20 f0       	brcs	.+8      	; 0xfa8 <__divsf3_pse+0xae>
 fa0:	62 1b       	sub	r22, r18
 fa2:	73 0b       	sbc	r23, r19
 fa4:	84 0b       	sbc	r24, r20
 fa6:	ba 0b       	sbc	r27, r26
 fa8:	ee 1f       	adc	r30, r30
 faa:	88 f7       	brcc	.-30     	; 0xf8e <__divsf3_pse+0x94>
 fac:	e0 95       	com	r30
 fae:	08 95       	ret

Disassembly of section .text.avrlibc.fplib:

0000185c <__fixsfsi>:
    185c:	0e 94 79 0a 	call	0x14f2	; 0x14f2 <__fixunssfsi>
    1860:	68 94       	set
    1862:	b1 11       	cpse	r27, r1
    1864:	0c 94 44 0c 	jmp	0x1888	; 0x1888 <__fp_szero>
    1868:	08 95       	ret

Disassembly of section .text.avrlibc.fplib:

000014f2 <__fixunssfsi>:
    14f2:	0e 94 52 0b 	call	0x16a4	; 0x16a4 <__fp_splitA>
    14f6:	88 f0       	brcs	.+34     	; 0x151a <__fixunssfsi+0x28>
    14f8:	9f 57       	subi	r25, 0x7F	; 127
    14fa:	98 f0       	brcs	.+38     	; 0x1522 <__fixunssfsi+0x30>
    14fc:	b9 2f       	mov	r27, r25
    14fe:	99 27       	eor	r25, r25
    1500:	b7 51       	subi	r27, 0x17	; 23
    1502:	b0 f0       	brcs	.+44     	; 0x1530 <__fixunssfsi+0x3e>
    1504:	e1 f0       	breq	.+56     	; 0x153e <__fixunssfsi+0x4c>
    1506:	66 0f       	add	r22, r22
    1508:	77 1f       	adc	r23, r23
    150a:	88 1f       	adc	r24, r24
    150c:	99 1f       	adc	r25, r25
    150e:	1a f0       	brmi	.+6      	; 0x1516 <__fixunssfsi+0x24>
    1510:	ba 95       	dec	r27
    1512:	c9 f7       	brne	.-14     	; 0x1506 <__fixunssfsi+0x14>
    1514:	14 c0       	rjmp	.+40     	; 0x153e <__fixunssfsi+0x4c>
    1516:	b1 30       	cpi	r27, 0x01	; 1
    1518:	91 f0       	breq	.+36     	; 0x153e <__fixunssfsi+0x4c>
    151a:	0e 94 43 0c 	call	0x1886	; 0x1886 <__fp_zero>
    151e:	b1 e0       	ldi	r27, 0x01	; 1
    1520:	08 95       	ret
    1522:	0c 94 43 0c 	jmp	0x1886	; 0x1886 <__fp_zero>
    1526:	67 2f       	mov	r22, r23
    1528:	78 2f       	mov	r23, r24
    152a:	88 27       	eor	r24, r24
    152c:	b8 5f       	subi	r27, 0xF8	; 248
    152e:	39 f0       	breq	.+14     	; 0x153e <__fixunssfsi+0x4c>
    1530:	b9 3f       	cpi	r27, 0xF9	; 249
    1532:	cc f3       	brlt	.-14     	; 0x1526 <__fixunssfsi+0x34>
    1534:	86 95       	lsr	r24
    1536:	77 95       	ror	r23
    1538:	67 95       	ror	r22
    153a:	b3 95       	inc	r27
    153c:	d9 f7       	brne	.-10     	; 0x1534 <__fixunssfsi+0x42>
    153e:	3e f4       	brtc	.+14     	; 0x154e <__fixunssfsi+0x5c>
    1540:	90 95       	com	r25
    1542:	80 95       	com	r24
    1544:	70 95       	com	r23
    1546:	61 95       	neg	r22
    1548:	7f 4f       	sbci	r23, 0xFF	; 255
    154a:	8f 4f       	sbci	r24, 0xFF	; 255
    154c:	9f 4f       	sbci	r25, 0xFF	; 255
    154e:	08 95       	ret

Disassembly of section .text.avrlibc.fplib:

0000121e <__floatunsisf>:
    121e:	e8 94       	clt
    1220:	09 c0       	rjmp	.+18     	; 0x1234 <__floatsisf+0x12>

00001222 <__floatsisf>:
    1222:	97 fb       	bst	r25, 7
    1224:	3e f4       	brtc	.+14     	; 0x1234 <__floatsisf+0x12>
    1226:	90 95       	com	r25
    1228:	80 95       	com	r24
    122a:	70 95       	com	r23
    122c:	61 95       	neg	r22
    122e:	7f 4f       	sbci	r23, 0xFF	; 255
    1230:	8f 4f       	sbci	r24, 0xFF	; 255
    1232:	9f 4f       	sbci	r25, 0xFF	; 255
    1234:	99 23       	and	r25, r25
    1236:	a9 f0       	breq	.+42     	; 0x1262 <__floatsisf+0x40>
    1238:	f9 2f       	mov	r31, r25
    123a:	96 e9       	ldi	r25, 0x96	; 150
    123c:	bb 27       	eor	r27, r27
    123e:	93 95       	inc	r25
    1240:	f6 95       	lsr	r31
    1242:	87 95       	ror	r24
    1244:	77 95       	ror	r23
    1246:	67 95       	ror	r22
    1248:	b7 95       	ror	r27
    124a:	f1 11       	cpse	r31, r1
    124c:	f8 cf       	rjmp	.-16     	; 0x123e <__floatsisf+0x1c>
    124e:	fa f4       	brpl	.+62     	; 0x128e <__floatsisf+0x6c>
    1250:	bb 0f       	add	r27, r27
    1252:	11 f4       	brne	.+4      	; 0x1258 <__floatsisf+0x36>
    1254:	60 ff       	sbrs	r22, 0
    1256:	1b c0       	rjmp	.+54     	; 0x128e <__floatsisf+0x6c>
    1258:	6f 5f       	subi	r22, 0xFF	; 255
    125a:	7f 4f       	sbci	r23, 0xFF	; 255
    125c:	8f 4f       	sbci	r24, 0xFF	; 255
    125e:	9f 4f       	sbci	r25, 0xFF	; 255
    1260:	16 c0       	rjmp	.+44     	; 0x128e <__floatsisf+0x6c>
    1262:	88 23       	and	r24, r24
    1264:	11 f0       	breq	.+4      	; 0x126a <__floatsisf+0x48>
    1266:	96 e9       	ldi	r25, 0x96	; 150
    1268:	11 c0       	rjmp	.+34     	; 0x128c <__floatsisf+0x6a>
    126a:	77 23       	and	r23, r23
    126c:	21 f0       	breq	.+8      	; 0x1276 <__floatsisf+0x54>
    126e:	9e e8       	ldi	r25, 0x8E	; 142
    1270:	87 2f       	mov	r24, r23
    1272:	76 2f       	mov	r23, r22
    1274:	05 c0       	rjmp	.+10     	; 0x1280 <__floatsisf+0x5e>
    1276:	66 23       	and	r22, r22
    1278:	71 f0       	breq	.+28     	; 0x1296 <__floatsisf+0x74>
    127a:	96 e8       	ldi	r25, 0x86	; 134
    127c:	86 2f       	mov	r24, r22
    127e:	70 e0       	ldi	r23, 0x00	; 0
    1280:	60 e0       	ldi	r22, 0x00	; 0
    1282:	2a f0       	brmi	.+10     	; 0x128e <__floatsisf+0x6c>
    1284:	9a 95       	dec	r25
    1286:	66 0f       	add	r22, r22
    1288:	77 1f       	adc	r23, r23
    128a:	88 1f       	adc	r24, r24
    128c:	da f7       	brpl	.-10     	; 0x1284 <__floatsisf+0x62>
    128e:	88 0f       	add	r24, r24
    1290:	96 95       	lsr	r25
    1292:	87 95       	ror	r24
    1294:	97 f9       	bld	r25, 7
    1296:	08 95       	ret

Disassembly of section .text.avrlibc.fplib:

0000164c <__fp_cmp>:
    164c:	99 0f       	add	r25, r25
    164e:	00 08       	sbc	r0, r0
    1650:	55 0f       	add	r21, r21
    1652:	aa 0b       	sbc	r26, r26
    1654:	e0 e8       	ldi	r30, 0x80	; 128
    1656:	fe ef       	ldi	r31, 0xFE	; 254
    1658:	16 16       	cp	r1, r22
    165a:	17 06       	cpc	r1, r23
    165c:	e8 07       	cpc	r30, r24
    165e:	f9 07       	cpc	r31, r25
    1660:	c0 f0       	brcs	.+48     	; 0x1692 <__fp_cmp+0x46>
    1662:	12 16       	cp	r1, r18
    1664:	13 06       	cpc	r1, r19
    1666:	e4 07       	cpc	r30, r20
    1668:	f5 07       	cpc	r31, r21
    166a:	98 f0       	brcs	.+38     	; 0x1692 <__fp_cmp+0x46>
    166c:	62 1b       	sub	r22, r18
    166e:	73 0b       	sbc	r23, r19
    1670:	84 0b       	sbc	r24, r20
    1672:	95 0b       	sbc	r25, r21
    1674:	39 f4       	brne	.+14     	; 0x1684 <__fp_cmp+0x38>
    1676:	0a 26       	eor	r0, r26
    1678:	61 f0       	breq	.+24     	; 0x1692 <__fp_cmp+0x46>
    167a:	23 2b       	or	r18, r19
    167c:	24 2b       	or	r18, r20
    167e:	25 2b       	or	r18, r21
    1680:	21 f4       	brne	.+8      	; 0x168a <__fp_cmp+0x3e>
    1682:	08 95       	ret
    1684:	0a 26       	eor	r0, r26
    1686:	09 f4       	brne	.+2      	; 0x168a <__fp_cmp+0x3e>
    1688:	a1 40       	sbci	r26, 0x01	; 1
    168a:	a6 95       	lsr	r26
    168c:	8f ef       	ldi	r24, 0xFF	; 255
    168e:	81 1d       	adc	r24, r1
    1690:	81 1d       	adc	r24, r1
    1692:	08 95       	ret

Disassembly of section .text.avrlibc.fplib:

00001894 <__fp_inf>:
    1894:	97 f9       	bld	r25, 7
    1896:	9f 67       	ori	r25, 0x7F	; 127
    1898:	80 e8       	ldi	r24, 0x80	; 128
    189a:	70 e0       	ldi	r23, 0x00	; 0
    189c:	60 e0       	ldi	r22, 0x00	; 0
    189e:	08 95       	ret

Disassembly of section .text.avrlibc.fplib:

000018da <__fp_nan>:
    18da:	9f ef       	ldi	r25, 0xFF	; 255
    18dc:	80 ec       	ldi	r24, 0xC0	; 192
    18de:	08 95       	ret

Disassembly of section .text.avrlibc.fplib:

0000186a <__fp_pscA>:
    186a:	00 24       	eor	r0, r0
    186c:	0a 94       	dec	r0
    186e:	16 16       	cp	r1, r22
    1870:	17 06       	cpc	r1, r23
    1872:	18 06       	cpc	r1, r24
    1874:	09 06       	cpc	r0, r25
    1876:	08 95       	ret

Disassembly of section .text.avrlibc.fplib:

00001878 <__fp_pscB>:
    1878:	00 24       	eor	r0, r0
    187a:	0a 94       	dec	r0
    187c:	12 16       	cp	r1, r18
    187e:	13 06       	cpc	r1, r19
    1880:	14 06       	cpc	r1, r20
    1882:	05 06       	cpc	r0, r21
    1884:	08 95       	ret

Disassembly of section .text.avrlibc.fplib:

000015a8 <__fp_rempio2>:
    15a8:	0e 94 52 0b 	call	0x16a4	; 0x16a4 <__fp_splitA>
    15ac:	10 f4       	brcc	.+4      	; 0x15b2 <__fp_rempio2+0xa>
    15ae:	0c 94 6d 0c 	jmp	0x18da	; 0x18da <__fp_nan>
    15b2:	e8 94       	clt
    15b4:	e0 e0       	ldi	r30, 0x00	; 0
    15b6:	bb 27       	eor	r27, r27
    15b8:	9f 57       	subi	r25, 0x7F	; 127
    15ba:	f0 f0       	brcs	.+60     	; 0x15f8 <__fp_rempio2+0x50>
    15bc:	2a ed       	ldi	r18, 0xDA	; 218
    15be:	3f e0       	ldi	r19, 0x0F	; 15
    15c0:	49 ec       	ldi	r20, 0xC9	; 201
    15c2:	06 c0       	rjmp	.+12     	; 0x15d0 <__fp_rempio2+0x28>
    15c4:	ee 0f       	add	r30, r30
    15c6:	bb 0f       	add	r27, r27
    15c8:	66 1f       	adc	r22, r22
    15ca:	77 1f       	adc	r23, r23
    15cc:	88 1f       	adc	r24, r24
    15ce:	28 f0       	brcs	.+10     	; 0x15da <__fp_rempio2+0x32>
    15d0:	b2 3a       	cpi	r27, 0xA2	; 162
    15d2:	62 07       	cpc	r22, r18
    15d4:	73 07       	cpc	r23, r19
    15d6:	84 07       	cpc	r24, r20
    15d8:	28 f0       	brcs	.+10     	; 0x15e4 <__fp_rempio2+0x3c>
    15da:	b2 5a       	subi	r27, 0xA2	; 162
    15dc:	62 0b       	sbc	r22, r18
    15de:	73 0b       	sbc	r23, r19
    15e0:	84 0b       	sbc	r24, r20
    15e2:	e3 95       	inc	r30
    15e4:	9a 95       	dec	r25
    15e6:	72 f7       	brpl	.-36     	; 0x15c4 <__fp_rempio2+0x1c>
    15e8:	80 38       	cpi	r24, 0x80	; 128
    15ea:	30 f4       	brcc	.+12     	; 0x15f8 <__fp_rempio2+0x50>
    15ec:	9a 95       	dec	r25
    15ee:	bb 0f       	add	r27, r27
    15f0:	66 1f       	adc	r22, r22
    15f2:	77 1f       	adc	r23, r23
    15f4:	88 1f       	adc	r24, r24
    15f6:	d2 f7       	brpl	.-12     	; 0x15ec <__fp_rempio2+0x44>
    15f8:	90 48       	sbci	r25, 0x80	; 128
    15fa:	0c 94 e0 0b 	jmp	0x17c0	; 0x17c0 <__fp_mpack_finite>

Disassembly of section .text.avrlibc.fplib:

0000179a <__fp_round>:
    179a:	09 2e       	mov	r0, r25
    179c:	03 94       	inc	r0
    179e:	00 0c       	add	r0, r0
    17a0:	11 f4       	brne	.+4      	; 0x17a6 <__fp_round+0xc>
    17a2:	88 23       	and	r24, r24
    17a4:	52 f0       	brmi	.+20     	; 0x17ba <__fp_round+0x20>
    17a6:	bb 0f       	add	r27, r27
    17a8:	40 f4       	brcc	.+16     	; 0x17ba <__fp_round+0x20>
    17aa:	bf 2b       	or	r27, r31
    17ac:	11 f4       	brne	.+4      	; 0x17b2 <__fp_round+0x18>
    17ae:	60 ff       	sbrs	r22, 0
    17b0:	04 c0       	rjmp	.+8      	; 0x17ba <__fp_round+0x20>
    17b2:	6f 5f       	subi	r22, 0xFF	; 255
    17b4:	7f 4f       	sbci	r23, 0xFF	; 255
    17b6:	8f 4f       	sbci	r24, 0xFF	; 255
    17b8:	9f 4f       	sbci	r25, 0xFF	; 255
    17ba:	08 95       	ret

Disassembly of section .text.avrlibc.fplib:

000016d8 <__fp_sinus>:
    16d8:	ef 93       	push	r30
    16da:	e0 ff       	sbrs	r30, 0
    16dc:	07 c0       	rjmp	.+14     	; 0x16ec <__fp_sinus+0x14>
    16de:	a2 ea       	ldi	r26, 0xA2	; 162
    16e0:	2a ed       	ldi	r18, 0xDA	; 218
    16e2:	3f e0       	ldi	r19, 0x0F	; 15
    16e4:	49 ec       	ldi	r20, 0xC9	; 201
    16e6:	5f eb       	ldi	r21, 0xBF	; 191
    16e8:	0e 94 42 08 	call	0x1084	; 0x1084 <__addsf3x>
    16ec:	0e 94 cd 0b 	call	0x179a	; 0x179a <__fp_round>
    16f0:	0f 90       	pop	r0
    16f2:	03 94       	inc	r0
    16f4:	01 fc       	sbrc	r0, 1
    16f6:	90 58       	subi	r25, 0x80	; 128
    16f8:	ec e7       	ldi	r30, 0x7C	; 124
    16fa:	f0 e0       	ldi	r31, 0x00	; 0
    16fc:	0c 94 80 0b 	jmp	0x1700	; 0x1700 <__fp_powsodd>

Disassembly of section .text.avrlibc.fplib:

00001694 <__fp_split3>:
    1694:	57 fd       	sbrc	r21, 7
    1696:	90 58       	subi	r25, 0x80	; 128
    1698:	44 0f       	add	r20, r20
    169a:	55 1f       	adc	r21, r21
    169c:	59 f0       	breq	.+22     	; 0x16b4 <__fp_splitA+0x10>
    169e:	5f 3f       	cpi	r21, 0xFF	; 255
    16a0:	71 f0       	breq	.+28     	; 0x16be <__fp_splitA+0x1a>
    16a2:	47 95       	ror	r20

000016a4 <__fp_splitA>:
    16a4:	88 0f       	add	r24, r24
    16a6:	97 fb       	bst	r25, 7
    16a8:	99 1f       	adc	r25, r25
    16aa:	61 f0       	breq	.+24     	; 0x16c4 <__fp_splitA+0x20>
    16ac:	9f 3f       	cpi	r25, 0xFF	; 255
    16ae:	79 f0       	breq	.+30     	; 0x16ce <__fp_splitA+0x2a>
    16b0:	87 95       	ror	r24
    16b2:	08 95       	ret
    16b4:	12 16       	cp	r1, r18
    16b6:	13 06       	cpc	r1, r19
    16b8:	14 06       	cpc	r1, r20
    16ba:	55 1f       	adc	r21, r21
    16bc:	f2 cf       	rjmp	.-28     	; 0x16a2 <__fp_split3+0xe>
    16be:	46 95       	lsr	r20
    16c0:	f1 df       	rcall	.-30     	; 0x16a4 <__fp_splitA>
    16c2:	08 c0       	rjmp	.+16     	; 0x16d4 <__fp_splitA+0x30>
    16c4:	16 16       	cp	r1, r22
    16c6:	17 06       	cpc	r1, r23
    16c8:	18 06       	cpc	r1, r24
    16ca:	99 1f       	adc	r25, r25
    16cc:	f1 cf       	rjmp	.-30     	; 0x16b0 <__fp_splitA+0xc>
    16ce:	86 95       	lsr	r24
    16d0:	71 05       	cpc	r23, r1
    16d2:	61 05       	cpc	r22, r1
    16d4:	08 94       	sec
    16d6:	08 95       	ret

Disassembly of section .text.avrlibc.fplib:

00001886 <__fp_zero>:
    1886:	e8 94       	clt

00001888 <__fp_szero>:
    1888:	bb 27       	eor	r27, r27
    188a:	66 27       	eor	r22, r22
    188c:	77 27       	eor	r23, r23
    188e:	cb 01       	movw	r24, r22
    1890:	97 f9       	bld	r25, 7
    1892:	08 95       	ret

Disassembly of section .text.avrlibc.fplib:

000018c0 <__gesf2>:
    18c0:	0e 94 26 0b 	call	0x164c	; 0x164c <__fp_cmp>
    18c4:	08 f4       	brcc	.+2      	; 0x18c8 <__gesf2+0x8>
    18c6:	8f ef       	ldi	r24, 0xFF	; 255
    18c8:	08 95       	ret

Disassembly of section .text.avrlibc.fplib:

000018d2 <__mulsf3>:
    18d2:	0e 94 d8 07 	call	0xfb0	; 0xfb0 <__mulsf3x>
    18d6:	0c 94 cd 0b 	jmp	0x179a	; 0x179a <__fp_round>

Disassembly of section .text.avrlibc.fplib:

00000fb0 <__mulsf3x>:
     fb0:	0f c0       	rjmp	.+30     	; 0xfd0 <__mulsf3x+0x20>
     fb2:	0e 94 35 0c 	call	0x186a	; 0x186a <__fp_pscA>
     fb6:	38 f0       	brcs	.+14     	; 0xfc6 <__mulsf3x+0x16>
     fb8:	0e 94 3c 0c 	call	0x1878	; 0x1878 <__fp_pscB>
     fbc:	20 f0       	brcs	.+8      	; 0xfc6 <__mulsf3x+0x16>
     fbe:	95 23       	and	r25, r21
     fc0:	11 f0       	breq	.+4      	; 0xfc6 <__mulsf3x+0x16>
     fc2:	0c 94 4a 0c 	jmp	0x1894	; 0x1894 <__fp_inf>
     fc6:	0c 94 6d 0c 	jmp	0x18da	; 0x18da <__fp_nan>
     fca:	11 24       	eor	r1, r1
     fcc:	0c 94 44 0c 	jmp	0x1888	; 0x1888 <__fp_szero>
     fd0:	0e 94 4a 0b 	call	0x1694	; 0x1694 <__fp_split3>
     fd4:	70 f3       	brcs	.-36     	; 0xfb2 <__mulsf3x+0x2>

00000fd6 <__mulsf3_pse>:
     fd6:	95 9f       	mul	r25, r21
     fd8:	c1 f3       	breq	.-16     	; 0xfca <__mulsf3x+0x1a>
     fda:	95 0f       	add	r25, r21
     fdc:	50 e0       	ldi	r21, 0x00	; 0
     fde:	55 1f       	adc	r21, r21
     fe0:	62 9f       	mul	r22, r18
     fe2:	f0 01       	movw	r30, r0
     fe4:	72 9f       	mul	r23, r18
     fe6:	bb 27       	eor	r27, r27
     fe8:	f0 0d       	add	r31, r0
     fea:	b1 1d       	adc	r27, r1
     fec:	63 9f       	mul	r22, r19
     fee:	aa 27       	eor	r26, r26
     ff0:	f0 0d       	add	r31, r0
     ff2:	b1 1d       	adc	r27, r1
     ff4:	aa 1f       	adc	r26, r26
     ff6:	64 9f       	mul	r22, r20
     ff8:	66 27       	eor	r22, r22
     ffa:	b0 0d       	add	r27, r0
     ffc:	a1 1d       	adc	r26, r1
     ffe:	66 1f       	adc	r22, r22
    1000:	82 9f       	mul	r24, r18
    1002:	22 27       	eor	r18, r18
    1004:	b0 0d       	add	r27, r0
    1006:	a1 1d       	adc	r26, r1
    1008:	62 1f       	adc	r22, r18
    100a:	73 9f       	mul	r23, r19
    100c:	b0 0d       	add	r27, r0
    100e:	a1 1d       	adc	r26, r1
    1010:	62 1f       	adc	r22, r18
    1012:	83 9f       	mul	r24, r19
    1014:	a0 0d       	add	r26, r0
    1016:	61 1d       	adc	r22, r1
    1018:	22 1f       	adc	r18, r18
    101a:	74 9f       	mul	r23, r20
    101c:	33 27       	eor	r19, r19
    101e:	a0 0d       	add	r26, r0
    1020:	61 1d       	adc	r22, r1
    1022:	23 1f       	adc	r18, r19
    1024:	84 9f       	mul	r24, r20
    1026:	60 0d       	add	r22, r0
    1028:	21 1d       	adc	r18, r1
    102a:	82 2f       	mov	r24, r18
    102c:	76 2f       	mov	r23, r22
    102e:	6a 2f       	mov	r22, r26
    1030:	11 24       	eor	r1, r1
    1032:	9f 57       	subi	r25, 0x7F	; 127
    1034:	50 40       	sbci	r21, 0x00	; 0
    1036:	9a f0       	brmi	.+38     	; 0x105e <__mulsf3_pse+0x88>
    1038:	f1 f0       	breq	.+60     	; 0x1076 <__mulsf3_pse+0xa0>
    103a:	88 23       	and	r24, r24
    103c:	4a f0       	brmi	.+18     	; 0x1050 <__mulsf3_pse+0x7a>
    103e:	ee 0f       	add	r30, r30
    1040:	ff 1f       	adc	r31, r31
    1042:	bb 1f       	adc	r27, r27
    1044:	66 1f       	adc	r22, r22
    1046:	77 1f       	adc	r23, r23
    1048:	88 1f       	adc	r24, r24
    104a:	91 50       	subi	r25, 0x01	; 1
    104c:	50 40       	sbci	r21, 0x00	; 0
    104e:	a9 f7       	brne	.-22     	; 0x103a <__mulsf3_pse+0x64>
    1050:	9e 3f       	cpi	r25, 0xFE	; 254
    1052:	51 05       	cpc	r21, r1
    1054:	80 f0       	brcs	.+32     	; 0x1076 <__mulsf3_pse+0xa0>
    1056:	0c 94 4a 0c 	jmp	0x1894	; 0x1894 <__fp_inf>
    105a:	0c 94 44 0c 	jmp	0x1888	; 0x1888 <__fp_szero>
    105e:	5f 3f       	cpi	r21, 0xFF	; 255
    1060:	e4 f3       	brlt	.-8      	; 0x105a <__mulsf3_pse+0x84>
    1062:	98 3e       	cpi	r25, 0xE8	; 232
    1064:	d4 f3       	brlt	.-12     	; 0x105a <__mulsf3_pse+0x84>
    1066:	86 95       	lsr	r24
    1068:	77 95       	ror	r23
    106a:	67 95       	ror	r22
    106c:	b7 95       	ror	r27
    106e:	f7 95       	ror	r31
    1070:	e7 95       	ror	r30
    1072:	9f 5f       	subi	r25, 0xFF	; 255
    1074:	c1 f7       	brne	.-16     	; 0x1066 <__mulsf3_pse+0x90>
    1076:	fe 2b       	or	r31, r30
    1078:	88 0f       	add	r24, r24
    107a:	91 1d       	adc	r25, r1
    107c:	96 95       	lsr	r25
    107e:	87 95       	ror	r24
    1080:	97 f9       	bld	r25, 7
    1082:	08 95       	ret

Disassembly of section .text.avrlibc.fplib:

000017bc <__fp_mpack>:
    17bc:	9f 3f       	cpi	r25, 0xFF	; 255
    17be:	31 f0       	breq	.+12     	; 0x17cc <__fp_mpack_finite+0xc>

000017c0 <__fp_mpack_finite>:
    17c0:	91 50       	subi	r25, 0x01	; 1
    17c2:	20 f4       	brcc	.+8      	; 0x17cc <__fp_mpack_finite+0xc>
    17c4:	87 95       	ror	r24
    17c6:	77 95       	ror	r23
    17c8:	67 95       	ror	r22
    17ca:	b7 95       	ror	r27
    17cc:	88 0f       	add	r24, r24
    17ce:	91 1d       	adc	r25, r1
    17d0:	96 95       	lsr	r25
    17d2:	87 95       	ror	r24
    17d4:	97 f9       	bld	r25, 7
    17d6:	08 95       	ret

Disassembly of section .text.avrlibc.fplib:

00001700 <__fp_powsodd>:
    1700:	9f 93       	push	r25
    1702:	8f 93       	push	r24
    1704:	7f 93       	push	r23
    1706:	6f 93       	push	r22
    1708:	ff 93       	push	r31
    170a:	ef 93       	push	r30
    170c:	9b 01       	movw	r18, r22
    170e:	ac 01       	movw	r20, r24
    1710:	0e 94 69 0c 	call	0x18d2	; 0x18d2 <__mulsf3>
    1714:	ef 91       	pop	r30
    1716:	ff 91       	pop	r31
    1718:	0e 94 ff 0a 	call	0x15fe	; 0x15fe <__fp_powser>
    171c:	2f 91       	pop	r18
    171e:	3f 91       	pop	r19
    1720:	4f 91       	pop	r20
    1722:	5f 91       	pop	r21
    1724:	0c 94 69 0c 	jmp	0x18d2	; 0x18d2 <__mulsf3>

Disassembly of section .text.avrlibc.fplib:

000015fe <__fp_powser>:
    15fe:	df 93       	push	r29
    1600:	cf 93       	push	r28
    1602:	1f 93       	push	r17
    1604:	0f 93       	push	r16
    1606:	ff 92       	push	r15
    1608:	ef 92       	push	r14
    160a:	df 92       	push	r13
    160c:	7b 01       	movw	r14, r22
    160e:	8c 01       	movw	r16, r24
    1610:	68 94       	set
    1612:	06 c0       	rjmp	.+12     	; 0x1620 <__fp_powser+0x22>
    1614:	da 2e       	mov	r13, r26
    1616:	ef 01       	movw	r28, r30
    1618:	0e 94 d8 07 	call	0xfb0	; 0xfb0 <__mulsf3x>
    161c:	fe 01       	movw	r30, r28
    161e:	e8 94       	clt
    1620:	a5 91       	lpm	r26, Z+
    1622:	25 91       	lpm	r18, Z+
    1624:	35 91       	lpm	r19, Z+
    1626:	45 91       	lpm	r20, Z+
    1628:	55 91       	lpm	r21, Z+
    162a:	a6 f3       	brts	.-24     	; 0x1614 <__fp_powser+0x16>
    162c:	ef 01       	movw	r28, r30
    162e:	0e 94 42 08 	call	0x1084	; 0x1084 <__addsf3x>
    1632:	fe 01       	movw	r30, r28
    1634:	97 01       	movw	r18, r14
    1636:	a8 01       	movw	r20, r16
    1638:	da 94       	dec	r13
    163a:	69 f7       	brne	.-38     	; 0x1616 <__fp_powser+0x18>
    163c:	df 90       	pop	r13
    163e:	ef 90       	pop	r14
    1640:	ff 90       	pop	r15
    1642:	0f 91       	pop	r16
    1644:	1f 91       	pop	r17
    1646:	cf 91       	pop	r28
    1648:	df 91       	pop	r29
    164a:	08 95       	ret

Disassembly of section .text.libgcc.div:

00001728 <__divmodhi4>:
    1728:	97 fb       	bst	r25, 7
    172a:	07 2e       	mov	r0, r23
    172c:	16 f4       	brtc	.+4      	; 0x1732 <__divmodhi4+0xa>
    172e:	00 94       	com	r0
    1730:	07 d0       	rcall	.+14     	; 0x1740 <__divmodhi4_neg1>
    1732:	77 fd       	sbrc	r23, 7
    1734:	09 d0       	rcall	.+18     	; 0x1748 <__divmodhi4_neg2>
    1736:	0e 94 a8 0b 	call	0x1750	; 0x1750 <__udivmodhi4>
    173a:	07 fc       	sbrc	r0, 7
    173c:	05 d0       	rcall	.+10     	; 0x1748 <__divmodhi4_neg2>
    173e:	3e f4       	brtc	.+14     	; 0x174e <__divmodhi4_exit>

00001740 <__divmodhi4_neg1>:
    1740:	90 95       	com	r25
    1742:	81 95       	neg	r24
    1744:	9f 4f       	sbci	r25, 0xFF	; 255
    1746:	08 95       	ret

00001748 <__divmodhi4_neg2>:
    1748:	70 95       	com	r23
    174a:	61 95       	neg	r22
    174c:	7f 4f       	sbci	r23, 0xFF	; 255

0000174e <__divmodhi4_exit>:
    174e:	08 95       	ret

Disassembly of section .text.libgcc:

000018a0 <__tablejump2__>:
    18a0:	ee 0f       	add	r30, r30
    18a2:	ff 1f       	adc	r31, r31
    18a4:	05 90       	lpm	r0, Z+
    18a6:	f4 91       	lpm	r31, Z
    18a8:	e0 2d       	mov	r30, r0
    18aa:	09 94       	ijmp

Disassembly of section .text.libgcc.div:

00001750 <__udivmodhi4>:
    1750:	aa 1b       	sub	r26, r26
    1752:	bb 1b       	sub	r27, r27
    1754:	51 e1       	ldi	r21, 0x11	; 17
    1756:	07 c0       	rjmp	.+14     	; 0x1766 <__udivmodhi4_ep>

00001758 <__udivmodhi4_loop>:
    1758:	aa 1f       	adc	r26, r26
    175a:	bb 1f       	adc	r27, r27
    175c:	a6 17       	cp	r26, r22
    175e:	b7 07       	cpc	r27, r23
    1760:	10 f0       	brcs	.+4      	; 0x1766 <__udivmodhi4_ep>
    1762:	a6 1b       	sub	r26, r22
    1764:	b7 0b       	sbc	r27, r23

00001766 <__udivmodhi4_ep>:
    1766:	88 1f       	adc	r24, r24
    1768:	99 1f       	adc	r25, r25
    176a:	5a 95       	dec	r21
    176c:	a9 f7       	brne	.-22     	; 0x1758 <__udivmodhi4_loop>
    176e:	80 95       	com	r24
    1770:	90 95       	com	r25
    1772:	bc 01       	movw	r22, r24
    1774:	cd 01       	movw	r24, r26
    1776:	08 95       	ret
